Certificate:
    Data:
        Version: 3 (0x2)
        Serial Number: 2 (0x2)
        Signature Algorithm: sha1WithRSAEncryption
        Issuer: C=US, O=Nobody Really Looks At This Anyway Inc., CN=Demo Certificate Authority
        Validity
            Not Before: Feb 13 06:23:19 2010 GMT
            Not After : Feb 14 06:23:19 2011 GMT
        Subject: CN=admin.local
        Subject Public Key Info:
            Public Key Algorithm: rsaEncryption
            RSA Public Key: (2048 bit)
                Modulus (2048 bit):
                    00:e0:08:f9:b9:a0:88:de:2e:62:41:5a:b6:5b:09:
                    d2:69:d0:51:b5:a7:84:94:05:51:95:8b:a4:d8:1d:
                    15:bb:1f:c1:5d:88:0c:8b:b8:bb:02:3a:cf:ca:fd:
                    e7:eb:b6:dd:38:e3:45:6c:93:f8:5d:19:c6:7d:d3:
                    88:e1:e2:51:3d:4e:9e:01:e6:74:df:eb:47:7a:c9:
                    96:6f:2c:b6:5f:ab:24:c8:7f:bc:94:9b:02:04:fd:
                    d6:22:f2:9e:83:c1:1a:7d:0d:0e:a7:f0:d0:9e:d4:
                    7d:f5:d3:b8:ef:69:36:2d:b8:36:1b:cb:10:b8:3c:
                    83:e0:17:26:8c:8e:e4:08:6e:ba:86:86:87:65:26:
                    cb:1c:6c:a2:ce:2b:68:86:1c:33:5f:d6:95:7e:84:
                    86:a4:4e:62:b0:01:2b:25:6a:e3:14:e2:81:3f:ff:
                    29:ec:2c:33:dc:c9:39:e4:02:c3:f3:af:7d:0e:95:
                    76:0f:59:16:a3:c3:03:ef:2c:eb:a1:e6:82:e5:fe:
                    0a:62:e6:29:ca:b0:f2:a6:17:e8:7b:f1:43:02:21:
                    8c:e5:3f:53:30:57:d7:2a:99:ed:7f:22:fc:0e:b5:
                    a6:d0:47:1b:7a:67:df:b4:be:12:f5:0a:7d:f2:b5:
                    ae:3a:8a:82:d7:cb:ff:6c:8f:f2:8e:a5:fd:f6:a9:
                    3c:9d
                Exponent: 65537 (0x10001)
        X509v3 extensions:
            X509v3 Key Usage: critical
                Digital Signature, Non Repudiation, Key Encipherment, Data Encipherment
            X509v3 Subject Key Identifier: 
                37:4F:B1:87:A0:B9:93:66:6A:15:D1:43:63:90:85:DF:62:5D:4D:11
            X509v3 Authority Key Identifier: 
                keyid:D5:ED:A0:CB:6E:DE:F2:67:54:E1:5D:2B:3E:8D:7E:C4:82:6C:1D:0D

            X509v3 Extended Key Usage: 
                TLS Web Server Authentication, TLS Web Client Authentication
            X509v3 Basic Constraints: critical
                CA:FALSE
    Signature Algorithm: sha1WithRSAEncryption
        20:90:f1:f5:07:d9:f0:52:47:a5:47:84:cc:1c:c6:0d:85:b2:
        8c:08:be:71:ee:72:2f:ce:a9:ee:af:5a:5f:42:50:8e:e2:0a:
        74:b4:40:b0:da:a4:77:b6:61:41:be:77:bc:49:43:24:be:90:
        4b:38:a3:e0:be:f6:04:e3:c5:ab:d6:3d:d4:dc:f2:4d:38:1e:
        59:57:e5:24:3d:cd:bf:ed:7a:cf:93:85:43:3b:3e:0a:f0:8f:
        6e:dd:ad:1b:1c:f4:3e:4d:99:d9:0c:52:4d:dc:9e:30:9d:0d:
        d9:d3:5a:5e:be:78:f7:a7:98:f5:21:ff:17:88:e3:21:4c:34:
        6a:9b:d3:4e:4b:1d:05:0d:5b:03:82:eb:2e:28:95:8b:fe:c2:
        99:e2:3c:cd:f6:87:82:0f:62:bb:79:50:d6:f7:e4:50:b9:7d:
        1a:5f:b7:39:d8:56:0c:f7:dc:2d:5d:29:d6:53:f5:7c:c7:80:
        c2:db:3b:8a:e4:d2:5e:6c:46:a0:97:50:f8:34:7c:d0:05:7d:
        0d:e2:39:c9:97:ef:bb:1c:d2:10:a1:6a:be:b7:f8:f9:53:e6:
        8a:af:4a:94:80:a1:4c:b3:30:42:de:9b:59:ca:3b:57:65:3a:
        a5:10:fc:40:db:1e:a2:9f:f5:7d:ab:98:d1:2c:4d:d3:0b:7b:
        7f:27:63:02
-----BEGIN CERTIFICATE-----
MIIDdDCCAlygAwIBAgIBAjANBgkqhkiG9w0BAQUFADBkMQswCQYDVQQGEwJVUzEw
MC4GA1UEChMnTm9ib2R5IFJlYWxseSBMb29rcyBBdCBUaGlzIEFueXdheSBJbmMu
MSMwIQYDVQQDExpEZW1vIENlcnRpZmljYXRlIEF1dGhvcml0eTAeFw0xMDAyMTMw
NjIzMTlaFw0xMTAyMTQwNjIzMTlaMBYxFDASBgNVBAMTC2FkbWluLmxvY2FsMIIB
IjANBgkqhkiG9w0BAQEFAAOCAQ8AMIIBCgKCAQEA4Aj5uaCI3i5iQVq2WwnSadBR
taeElAVRlYuk2B0Vux/BXYgMi7i7AjrPyv3n67bdOONFbJP4XRnGfdOI4eJRPU6e
AeZ03+tHesmWbyy2X6skyH+8lJsCBP3WIvKeg8EafQ0Op/DQntR99dO472k2Lbg2
G8sQuDyD4BcmjI7kCG66hoaHZSbLHGyizitohhwzX9aVfoSGpE5isAErJWrjFOKB
P/8p7Cwz3Mk55ALD8699DpV2D1kWo8MD7yzroeaC5f4KYuYpyrDyphfoe/FDAiGM
5T9TMFfXKpntfyL8DrWm0EcbemfftL4S9Qp98rWuOoqC18v/bI/yjqX99qk8nQID
AQABo38wfTAOBgNVHQ8BAf8EBAMCBPAwHQYDVR0OBBYEFDdPsYeguZNmahXRQ2OQ
hd9iXU0RMB8GA1UdIwQYMBaAFNXtoMtu3vJnVOFdKz6NfsSCbB0NMB0GA1UdJQQW
MBQGCCsGAQUFBwMBBggrBgEFBQcDAjAMBgNVHRMBAf8EAjAAMA0GCSqGSIb3DQEB
BQUAA4IBAQAgkPH1B9nwUkelR4TMHMYNhbKMCL5x7nIvzqnur1pfQlCO4gp0tECw
2qR3tmFBvne8SUMkvpBLOKPgvvYE48Wr1j3U3PJNOB5ZV+UkPc2/7XrPk4VDOz4K
8I9u3a0bHPQ+TZnZDFJN3J4wnQ3Z01pevnj3p5j1If8XiOMhTDRqm9NOSx0FDVsD
gusuKJWL/sKZ4jzN9oeCD2K7eVDW9+RQuX0aX7c52FYM99wtXSnWU/V8x4DC2zuK
5NJebEagl1D4NHzQBX0N4jnJl++7HNIQoWq+t/j5U+aKr0qUgKFMszBC3ptZyjtX
ZTqlEPxA2x6in/V9q5jRLE3TC3t/J2MC
-----END CERTIFICATE-----
