Certificate:
    Data:
        Version: 3 (0x2)
        Serial Number: 30 (0x1e)
        Signature Algorithm: sha1WithRSAEncryption
        Issuer: C=US, O=Nobody Really Looks At This Anyway Inc., CN=Demo Certificate Authority
        Validity
            Not Before: Mar 26 00:09:02 2010 GMT
            Not After : Mar 27 00:09:02 2011 GMT
        Subject: CN=www.wachovia.com
        Subject Public Key Info:
            Public Key Algorithm: rsaEncryption
            RSA Public Key: (2048 bit)
                Modulus (2048 bit):
                    00:c6:f9:a3:9a:54:3f:f6:e1:ec:07:9a:b5:4f:a2:
                    5c:8c:62:2f:af:1c:27:b1:98:88:3c:6d:18:71:0a:
                    40:be:4d:aa:5e:cf:14:5b:ce:b8:0d:8c:3a:3f:2a:
                    3e:aa:8b:b3:99:ae:b7:1a:ec:ec:4e:1a:7f:32:e2:
                    15:5f:56:07:22:fc:6b:97:50:b4:20:f1:bc:f8:b2:
                    01:37:a2:cd:0f:6f:fb:ee:6b:81:11:40:3b:b3:4d:
                    08:f2:01:ae:ae:ac:da:5b:48:b3:1f:a3:85:20:62:
                    2a:d6:04:87:1b:ad:4d:f5:32:40:37:9b:85:a9:8a:
                    c3:0a:6d:2d:f6:e7:88:55:33:34:70:e7:43:06:ae:
                    8f:59:72:97:12:4a:0a:0a:62:5d:f9:30:5c:55:a4:
                    f2:4f:89:2e:02:41:8a:f3:89:3a:7d:64:a2:71:ea:
                    ff:8f:04:6f:bc:a0:b6:52:69:57:03:c4:26:ee:28:
                    ba:de:54:e8:fa:20:e1:29:70:17:5f:7c:64:68:d8:
                    85:37:ac:cf:1a:c3:cc:ef:0c:e6:54:6e:0d:90:0b:
                    b0:d4:7e:59:38:ae:6d:2f:61:53:28:13:36:dd:81:
                    0b:d6:13:33:31:e1:29:49:8b:a1:f8:0b:40:6a:d2:
                    e6:60:a3:22:0a:b7:03:80:ce:aa:2a:30:4d:08:78:
                    31:05
                Exponent: 65537 (0x10001)
        X509v3 extensions:
            X509v3 Key Usage: critical
                Digital Signature, Non Repudiation, Key Encipherment, Data Encipherment
            X509v3 Subject Key Identifier: 
                9B:03:50:47:47:DA:43:2D:79:B8:BE:0E:64:F7:DE:9C:95:2E:D4:29
            X509v3 Authority Key Identifier: 
                keyid:D5:ED:A0:CB:6E:DE:F2:67:54:E1:5D:2B:3E:8D:7E:C4:82:6C:1D:0D

            X509v3 Extended Key Usage: 
                TLS Web Server Authentication, TLS Web Client Authentication
            X509v3 Basic Constraints: critical
                CA:FALSE
    Signature Algorithm: sha1WithRSAEncryption
        33:bd:f8:2a:87:68:18:a2:8b:c2:fa:78:9f:d0:4e:53:6c:f6:
        30:dc:4e:5e:27:44:3c:1e:3b:63:6a:12:04:50:89:ea:82:5c:
        1d:2f:08:ac:54:8d:d0:fd:e8:c0:ee:76:63:c9:51:ec:c9:24:
        c5:49:f3:ab:d3:7b:e9:64:f8:cf:6f:65:7b:43:27:6e:d1:3b:
        d5:97:74:4a:11:b8:ce:46:32:82:04:d8:4d:45:1c:06:b1:fd:
        2f:e8:46:09:a7:8b:63:d9:da:f1:e5:2f:ff:50:03:fc:32:a6:
        dd:d9:78:74:85:bd:b8:38:aa:6c:b2:48:92:8b:b4:e0:de:1a:
        90:c5:d6:2e:29:54:9f:cb:68:d1:89:f0:82:28:5d:dd:39:41:
        51:a7:3d:51:79:3d:3c:99:83:eb:cf:a9:c8:c3:a5:5e:b2:67:
        4b:f8:1e:c2:af:a8:fc:13:9d:0a:ed:81:ea:e0:c0:e6:57:9d:
        ec:a0:b8:39:f1:b6:11:e6:73:fe:80:dc:ad:ea:90:c0:f1:35:
        6d:68:a6:b8:3a:6d:b2:4d:df:08:21:8c:9c:0e:f1:32:45:36:
        17:fc:24:9b:68:1a:1a:b1:7a:dc:ea:50:ae:50:a1:ae:d4:71:
        c0:cf:a1:73:76:ac:2f:e9:94:c5:67:f4:6b:95:cc:57:14:36:
        e7:83:a3:86
-----BEGIN CERTIFICATE-----
MIIDeTCCAmGgAwIBAgIBHjANBgkqhkiG9w0BAQUFADBkMQswCQYDVQQGEwJVUzEw
MC4GA1UEChMnTm9ib2R5IFJlYWxseSBMb29rcyBBdCBUaGlzIEFueXdheSBJbmMu
MSMwIQYDVQQDExpEZW1vIENlcnRpZmljYXRlIEF1dGhvcml0eTAeFw0xMDAzMjYw
MDA5MDJaFw0xMTAzMjcwMDA5MDJaMBsxGTAXBgNVBAMTEHd3dy53YWNob3ZpYS5j
b20wggEiMA0GCSqGSIb3DQEBAQUAA4IBDwAwggEKAoIBAQDG+aOaVD/24ewHmrVP
olyMYi+vHCexmIg8bRhxCkC+TapezxRbzrgNjDo/Kj6qi7OZrrca7OxOGn8y4hVf
Vgci/GuXULQg8bz4sgE3os0Pb/vua4ERQDuzTQjyAa6urNpbSLMfo4UgYirWBIcb
rU31MkA3m4WpisMKbS3254hVMzRw50MGro9ZcpcSSgoKYl35MFxVpPJPiS4CQYrz
iTp9ZKJx6v+PBG+8oLZSaVcDxCbuKLreVOj6IOEpcBdffGRo2IU3rM8aw8zvDOZU
bg2QC7DUflk4rm0vYVMoEzbdgQvWEzMx4SlJi6H4C0Bq0uZgoyIKtwOAzqoqME0I
eDEFAgMBAAGjfzB9MA4GA1UdDwEB/wQEAwIE8DAdBgNVHQ4EFgQUmwNQR0faQy15
uL4OZPfenJUu1CkwHwYDVR0jBBgwFoAU1e2gy27e8mdU4V0rPo1+xIJsHQ0wHQYD
VR0lBBYwFAYIKwYBBQUHAwEGCCsGAQUFBwMCMAwGA1UdEwEB/wQCMAAwDQYJKoZI
hvcNAQEFBQADggEBADO9+CqHaBiii8L6eJ/QTlNs9jDcTl4nRDweO2NqEgRQieqC
XB0vCKxUjdD96MDudmPJUezJJMVJ86vTe+lk+M9vZXtDJ27RO9WXdEoRuM5GMoIE
2E1FHAax/S/oRgmni2PZ2vHlL/9QA/wypt3ZeHSFvbg4qmyySJKLtODeGpDF1i4p
VJ/LaNGJ8IIoXd05QVGnPVF5PTyZg+vPqcjDpV6yZ0v4HsKvqPwTnQrtgergwOZX
neyguDnxthHmc/6A3K3qkMDxNW1oprg6bbJN3wghjJwO8TJFNhf8JJtoGhqxetzq
UK5Qoa7UccDPoXN2rC/plMVn9GuVzFcUNueDo4Y=
-----END CERTIFICATE-----
