Certificate:
    Data:
        Version: 3 (0x2)
        Serial Number: 31 (0x1f)
        Signature Algorithm: sha1WithRSAEncryption
        Issuer: C=US, O=Nobody Really Looks At This Anyway Inc., CN=Demo Certificate Authority
        Validity
            Not Before: Mar 26 00:09:14 2010 GMT
            Not After : Mar 27 00:09:14 2011 GMT
        Subject: CN=a248.e.akamai.net
        Subject Public Key Info:
            Public Key Algorithm: rsaEncryption
            RSA Public Key: (2048 bit)
                Modulus (2048 bit):
                    00:c2:bb:99:e1:94:e3:42:e4:89:e1:18:38:de:9f:
                    30:6a:7d:bf:68:4d:2d:d0:a9:31:57:4b:52:a5:3c:
                    da:83:51:c8:8f:e4:07:83:ff:82:17:ab:95:92:46:
                    c0:8b:6a:3f:00:c2:81:57:c8:ce:d4:44:59:e7:14:
                    34:54:7a:20:ff:9e:83:cb:63:19:b8:db:4c:ac:87:
                    08:9f:ed:33:74:82:4c:3a:2c:42:73:79:24:79:e0:
                    79:26:b6:c9:12:38:9a:02:ab:07:85:03:38:20:3a:
                    2c:cf:34:c7:80:3c:50:13:d9:d4:08:81:bf:e9:f2:
                    85:06:c6:e1:9c:17:21:b8:9d:94:a6:3c:c8:07:41:
                    6b:b0:d4:00:45:f0:34:2f:f8:57:f1:74:c4:c8:a8:
                    5b:79:18:12:45:dc:93:c2:b1:6c:1a:2f:80:30:b2:
                    c1:fb:f8:ec:50:f5:1b:fc:ee:cf:32:63:2a:9e:92:
                    ce:ce:b6:64:c3:bb:f4:bf:ba:97:2a:ca:1b:84:7d:
                    5d:ea:ac:9a:d7:07:d3:bf:5c:e0:8d:e6:0b:78:34:
                    48:d6:b6:f1:83:1f:e3:06:c5:e4:d6:35:fa:46:e6:
                    cf:78:e0:de:de:d9:ad:cb:47:db:3c:3b:09:b4:c5:
                    1e:e9:81:81:30:95:b0:d3:8b:65:72:88:c0:52:57:
                    c1:09
                Exponent: 65537 (0x10001)
        X509v3 extensions:
            X509v3 Key Usage: critical
                Digital Signature, Non Repudiation, Key Encipherment, Data Encipherment
            X509v3 Subject Key Identifier: 
                84:A9:92:F3:5F:D5:99:32:7E:A2:4C:BD:B7:10:EF:5A:BA:E2:A1:17
            X509v3 Authority Key Identifier: 
                keyid:D5:ED:A0:CB:6E:DE:F2:67:54:E1:5D:2B:3E:8D:7E:C4:82:6C:1D:0D

            X509v3 Extended Key Usage: 
                TLS Web Server Authentication, TLS Web Client Authentication
            X509v3 Basic Constraints: critical
                CA:FALSE
    Signature Algorithm: sha1WithRSAEncryption
        0f:d9:e7:00:18:eb:5e:9f:86:95:02:12:5e:9b:33:f4:35:52:
        30:74:e3:a0:34:c4:02:e8:e1:fb:f1:dc:a2:fa:13:37:ea:2f:
        3f:36:8a:60:db:9d:c9:8a:e9:a1:8d:8a:13:17:2c:7c:46:31:
        3c:da:36:d5:a5:bf:e3:59:3b:88:a1:a4:8e:79:84:88:e6:5c:
        0b:80:5a:4e:0e:e5:41:50:e9:6b:7d:98:c3:07:99:37:3b:5b:
        aa:37:b1:12:c7:85:67:ac:77:a9:07:85:de:a2:aa:25:a2:82:
        26:be:34:9c:2d:da:55:e3:f9:81:79:ff:bc:dc:dc:1f:c6:a8:
        de:cb:45:e7:17:89:ec:46:66:0c:5f:c9:df:57:05:f5:67:47:
        61:6e:6e:ac:ad:6c:af:ec:21:bd:db:54:b8:d0:ff:5e:6b:a1:
        50:61:8c:fa:38:b6:d1:5a:20:4f:cd:14:45:a2:61:15:e9:20:
        78:29:13:75:f2:11:6c:1b:bd:a3:09:7a:7c:50:63:fa:8d:15:
        db:f6:22:d7:3f:9b:91:06:48:81:ac:b0:af:19:4f:0c:77:81:
        84:49:96:44:09:72:1f:5c:d9:56:7f:4c:7a:ea:86:da:c6:3b:
        ac:ce:9e:12:e6:77:84:04:5b:69:f7:1f:cf:a6:b0:87:94:cd:
        84:d3:a1:64
-----BEGIN CERTIFICATE-----
MIIDejCCAmKgAwIBAgIBHzANBgkqhkiG9w0BAQUFADBkMQswCQYDVQQGEwJVUzEw
MC4GA1UEChMnTm9ib2R5IFJlYWxseSBMb29rcyBBdCBUaGlzIEFueXdheSBJbmMu
MSMwIQYDVQQDExpEZW1vIENlcnRpZmljYXRlIEF1dGhvcml0eTAeFw0xMDAzMjYw
MDA5MTRaFw0xMTAzMjcwMDA5MTRaMBwxGjAYBgNVBAMTEWEyNDguZS5ha2FtYWku
bmV0MIIBIjANBgkqhkiG9w0BAQEFAAOCAQ8AMIIBCgKCAQEAwruZ4ZTjQuSJ4Rg4
3p8wan2/aE0t0KkxV0tSpTzag1HIj+QHg/+CF6uVkkbAi2o/AMKBV8jO1ERZ5xQ0
VHog/56Dy2MZuNtMrIcIn+0zdIJMOixCc3kkeeB5JrbJEjiaAqsHhQM4IDoszzTH
gDxQE9nUCIG/6fKFBsbhnBchuJ2UpjzIB0FrsNQARfA0L/hX8XTEyKhbeRgSRdyT
wrFsGi+AMLLB+/jsUPUb/O7PMmMqnpLOzrZkw7v0v7qXKsobhH1d6qya1wfTv1zg
jeYLeDRI1rbxgx/jBsXk1jX6RubPeODe3tmty0fbPDsJtMUe6YGBMJWw04tlcojA
UlfBCQIDAQABo38wfTAOBgNVHQ8BAf8EBAMCBPAwHQYDVR0OBBYEFISpkvNf1Zky
fqJMvbcQ71q64qEXMB8GA1UdIwQYMBaAFNXtoMtu3vJnVOFdKz6NfsSCbB0NMB0G
A1UdJQQWMBQGCCsGAQUFBwMBBggrBgEFBQcDAjAMBgNVHRMBAf8EAjAAMA0GCSqG
SIb3DQEBBQUAA4IBAQAP2ecAGOten4aVAhJemzP0NVIwdOOgNMQC6OH78dyi+hM3
6i8/Nopg253JiumhjYoTFyx8RjE82jbVpb/jWTuIoaSOeYSI5lwLgFpODuVBUOlr
fZjDB5k3O1uqN7ESx4VnrHepB4XeoqolooImvjScLdpV4/mBef+83Nwfxqjey0Xn
F4nsRmYMX8nfVwX1Z0dhbm6srWyv7CG921S40P9ea6FQYYz6OLbRWiBPzRRFomEV
6SB4KRN18hFsG72jCXp8UGP6jRXb9iLXP5uRBkiBrLCvGU8Md4GESZZECXIfXNlW
f0x66obaxjuszp4S5neEBFtp9x/PprCHlM2E06Fk
-----END CERTIFICATE-----
