Certificate:
    Data:
        Version: 3 (0x2)
        Serial Number: 32 (0x20)
        Signature Algorithm: sha1WithRSAEncryption
        Issuer: C=US, O=Nobody Really Looks At This Anyway Inc., CN=Demo Certificate Authority
        Validity
            Not Before: Mar 26 00:09:23 2010 GMT
            Not After : Mar 27 00:09:23 2011 GMT
        Subject: CN=*.112.2o7.net
        Subject Public Key Info:
            Public Key Algorithm: rsaEncryption
            RSA Public Key: (2048 bit)
                Modulus (2048 bit):
                    00:c3:9a:ff:e6:8e:69:72:86:03:3a:89:fb:a2:0e:
                    84:39:46:14:7c:9b:fb:df:40:62:44:e5:db:b8:36:
                    7d:44:2f:b1:3a:88:e6:5a:95:12:42:30:40:f0:74:
                    b7:1b:32:04:5b:d3:c7:54:4d:7f:e8:89:f1:b3:08:
                    c3:86:13:fd:72:3a:7f:28:47:ef:c4:7a:7a:a3:f2:
                    0e:ca:76:3f:89:19:08:a3:68:27:87:e4:99:27:55:
                    ed:d2:e3:c0:f2:16:1c:65:c6:3f:8f:73:bd:a4:df:
                    8c:9b:21:d8:2b:9c:e4:30:c2:2d:fa:6c:2b:72:79:
                    32:78:3a:96:84:71:0d:ae:96:8b:b0:95:92:15:6e:
                    6a:89:d1:08:49:c1:fd:6d:f2:0c:18:2c:3c:66:af:
                    9f:fd:6c:22:50:e9:7f:fe:c7:f4:04:de:bb:31:ab:
                    e1:7a:79:65:aa:6b:7f:df:b8:86:53:11:89:b5:9e:
                    0a:67:9a:ef:cd:18:0d:9d:4d:53:c4:df:24:c7:42:
                    ab:34:e2:d1:1f:9e:46:5c:34:72:e1:5e:7a:f4:d1:
                    78:d0:3f:1b:68:d8:b6:8f:97:9c:95:6c:9a:d3:11:
                    ec:6c:06:43:9c:ea:17:2a:31:41:3d:b8:79:c3:b7:
                    0b:29:b3:47:97:69:a1:77:d3:e4:d2:65:d4:54:bb:
                    30:af
                Exponent: 65537 (0x10001)
        X509v3 extensions:
            X509v3 Key Usage: critical
                Digital Signature, Non Repudiation, Key Encipherment, Data Encipherment
            X509v3 Subject Key Identifier: 
                A1:89:4B:92:DD:AC:E2:39:0B:4E:92:77:F3:EA:16:4B:3E:76:B9:9B
            X509v3 Authority Key Identifier: 
                keyid:D5:ED:A0:CB:6E:DE:F2:67:54:E1:5D:2B:3E:8D:7E:C4:82:6C:1D:0D

            X509v3 Extended Key Usage: 
                TLS Web Server Authentication, TLS Web Client Authentication
            X509v3 Basic Constraints: critical
                CA:FALSE
    Signature Algorithm: sha1WithRSAEncryption
        28:6a:3e:1e:9f:06:4b:9c:db:7c:98:1c:bb:0b:b2:90:eb:ee:
        e0:69:77:80:9b:42:6f:fe:2a:42:8a:51:0c:fb:33:a5:6f:d6:
        61:5b:a7:31:97:b5:41:36:89:93:f9:31:62:c6:21:6a:66:88:
        23:e2:0f:37:7f:53:a9:6c:81:76:ee:70:10:61:6a:69:7d:d4:
        18:e2:91:1f:6c:59:16:49:e7:3c:0b:ac:3e:26:c0:98:2a:5b:
        ac:69:9b:ed:77:94:a5:71:79:2a:5a:c7:0d:a0:0d:8f:92:7d:
        54:ef:68:cc:77:a9:2f:6d:a0:33:8c:d3:e8:0b:83:b5:ae:25:
        b1:3c:1e:e4:8e:80:58:3a:80:76:e4:19:de:61:47:af:e4:c1:
        0c:4b:e0:5f:9b:ac:09:7d:cb:6d:ea:7d:f3:cf:74:76:37:43:
        c7:a2:a7:94:e8:ef:a6:05:42:ca:1c:21:ed:b2:1e:32:48:43:
        99:b8:a4:0d:9a:71:e8:3b:db:c4:f1:f7:e3:bc:70:c8:c6:73:
        ce:1e:58:f9:3b:74:a8:50:ce:a7:5f:38:c0:9c:f5:e7:b7:c0:
        5c:29:62:f4:f2:8d:8b:d8:a3:53:47:87:5d:07:9a:2b:c5:9a:
        77:f0:87:4a:75:f1:6f:c4:63:8f:90:5c:b8:06:7f:1b:0b:73:
        ae:25:d1:98
-----BEGIN CERTIFICATE-----
MIIDdjCCAl6gAwIBAgIBIDANBgkqhkiG9w0BAQUFADBkMQswCQYDVQQGEwJVUzEw
MC4GA1UEChMnTm9ib2R5IFJlYWxseSBMb29rcyBBdCBUaGlzIEFueXdheSBJbmMu
MSMwIQYDVQQDExpEZW1vIENlcnRpZmljYXRlIEF1dGhvcml0eTAeFw0xMDAzMjYw
MDA5MjNaFw0xMTAzMjcwMDA5MjNaMBgxFjAUBgNVBAMUDSouMTEyLjJvNy5uZXQw
ggEiMA0GCSqGSIb3DQEBAQUAA4IBDwAwggEKAoIBAQDDmv/mjmlyhgM6ifuiDoQ5
RhR8m/vfQGJE5du4Nn1EL7E6iOZalRJCMEDwdLcbMgRb08dUTX/oifGzCMOGE/1y
On8oR+/Eenqj8g7Kdj+JGQijaCeH5JknVe3S48DyFhxlxj+Pc72k34ybIdgrnOQw
wi36bCtyeTJ4OpaEcQ2ulouwlZIVbmqJ0QhJwf1t8gwYLDxmr5/9bCJQ6X/+x/QE
3rsxq+F6eWWqa3/fuIZTEYm1ngpnmu/NGA2dTVPE3yTHQqs04tEfnkZcNHLhXnr0
0XjQPxto2LaPl5yVbJrTEexsBkOc6hcqMUE9uHnDtwsps0eXaaF30+TSZdRUuzCv
AgMBAAGjfzB9MA4GA1UdDwEB/wQEAwIE8DAdBgNVHQ4EFgQUoYlLkt2s4jkLTpJ3
8+oWSz52uZswHwYDVR0jBBgwFoAU1e2gy27e8mdU4V0rPo1+xIJsHQ0wHQYDVR0l
BBYwFAYIKwYBBQUHAwEGCCsGAQUFBwMCMAwGA1UdEwEB/wQCMAAwDQYJKoZIhvcN
AQEFBQADggEBAChqPh6fBkuc23yYHLsLspDr7uBpd4CbQm/+KkKKUQz7M6Vv1mFb
pzGXtUE2iZP5MWLGIWpmiCPiDzd/U6lsgXbucBBhaml91BjikR9sWRZJ5zwLrD4m
wJgqW6xpm+13lKVxeSpaxw2gDY+SfVTvaMx3qS9toDOM0+gLg7WuJbE8HuSOgFg6
gHbkGd5hR6/kwQxL4F+brAl9y23qffPPdHY3Q8eip5To76YFQsocIe2yHjJIQ5m4
pA2aceg728Tx9+O8cMjGc84eWPk7dKhQzqdfOMCc9ee3wFwpYvTyjYvYo1NHh10H
mivFmnfwh0p18W/EY4+QXLgGfxsLc64l0Zg=
-----END CERTIFICATE-----
