Certificate:
    Data:
        Version: 3 (0x2)
        Serial Number: 33 (0x21)
        Signature Algorithm: sha1WithRSAEncryption
        Issuer: C=US, O=Nobody Really Looks At This Anyway Inc., CN=Demo Certificate Authority
        Validity
            Not Before: Mar 26 00:09:24 2010 GMT
            Not After : Mar 27 00:09:24 2011 GMT
        Subject: CN=*.doubleclick.net
        Subject Public Key Info:
            Public Key Algorithm: rsaEncryption
            RSA Public Key: (2048 bit)
                Modulus (2048 bit):
                    00:cc:e1:af:0f:22:dd:54:8c:3c:bb:6d:17:52:da:
                    ab:63:82:b0:ea:ad:a4:58:5a:62:55:45:89:87:cf:
                    c7:25:b2:f6:49:7c:ac:33:88:21:86:cd:6a:d5:86:
                    4b:ee:3a:d5:91:20:39:53:bf:c2:4e:6a:1c:84:ab:
                    be:53:c0:f5:a2:fc:21:40:c7:cb:4f:4c:46:0e:02:
                    43:e2:98:d5:09:0e:18:a8:03:67:c8:64:29:42:74:
                    b5:e0:2f:e1:81:83:f7:6f:65:85:ce:15:3b:6c:1e:
                    a4:55:be:0d:ed:d9:aa:27:34:b2:34:bc:f9:fa:13:
                    86:16:9f:f0:f5:cc:ff:b3:18:b6:04:e0:3a:c6:07:
                    32:a5:c0:aa:0f:a9:ff:cc:1c:de:5c:ad:53:ce:04:
                    78:c2:07:6a:d8:f6:3d:0e:e5:0f:d4:ba:1e:13:c0:
                    fd:d3:59:f7:9a:2a:52:1a:4a:d6:4d:3c:bb:14:9b:
                    cb:17:b1:09:86:c2:c9:a2:cb:4b:46:2d:6c:7c:1a:
                    1e:60:dc:c2:b2:4c:3e:3f:1f:b1:64:41:71:be:cd:
                    ef:76:0d:c1:ea:ac:b2:1e:a4:b1:b3:0e:b1:c1:bf:
                    ea:b9:b8:11:f5:87:17:b5:69:02:0a:6b:db:45:e6:
                    c9:8d:f4:bc:d6:ce:c2:79:3c:15:12:fb:97:be:b0:
                    21:ef
                Exponent: 65537 (0x10001)
        X509v3 extensions:
            X509v3 Key Usage: critical
                Digital Signature, Non Repudiation, Key Encipherment, Data Encipherment
            X509v3 Subject Key Identifier: 
                AC:CC:09:19:36:D6:F1:51:63:FF:D4:7D:C9:03:36:1D:50:5E:46:F4
            X509v3 Authority Key Identifier: 
                keyid:D5:ED:A0:CB:6E:DE:F2:67:54:E1:5D:2B:3E:8D:7E:C4:82:6C:1D:0D

            X509v3 Extended Key Usage: 
                TLS Web Server Authentication, TLS Web Client Authentication
            X509v3 Basic Constraints: critical
                CA:FALSE
    Signature Algorithm: sha1WithRSAEncryption
        20:a8:88:30:ab:12:24:67:fc:3b:62:36:e2:ce:8c:97:69:cd:
        d3:d2:27:29:03:7d:c0:33:e4:bf:bf:88:76:c5:db:0d:68:4c:
        80:50:24:e0:33:e2:f2:59:35:aa:1d:d7:68:a7:9e:2f:7f:f0:
        1b:76:c9:7b:31:b1:47:0e:4a:b2:67:68:1d:d6:7b:1c:f0:1b:
        d3:4f:37:9c:d1:40:a5:6f:90:51:9c:38:14:13:6f:49:45:f2:
        08:b9:4f:a3:c8:d7:11:c6:bd:a7:85:63:aa:48:d4:f3:a9:20:
        8a:a9:e4:df:ea:ee:fb:e1:6e:2c:c2:38:2d:a2:fd:a9:8e:3b:
        0a:db:c5:dc:a5:4b:cd:ff:6f:1c:95:a2:6a:b6:cd:f1:d2:ee:
        b6:1e:a5:29:a4:c1:9a:72:47:a4:a0:95:4d:f7:e5:49:2d:2f:
        86:c1:05:2f:4b:0e:77:ee:36:a6:18:e8:10:d3:6a:e3:9e:fb:
        1a:57:c7:7b:74:9f:26:ab:e1:b5:f6:14:23:98:15:d2:9c:1b:
        5f:a1:32:16:0a:5c:7b:f5:0b:27:cd:5a:9f:84:5c:d9:03:5d:
        b7:fe:08:6a:bf:79:1a:e7:3e:6e:ab:82:48:79:32:76:62:ce:
        d0:c3:b2:49:7b:e8:d6:96:b5:77:27:ea:7f:8a:5b:ee:5a:01:
        4e:9e:ac:75
-----BEGIN CERTIFICATE-----
MIIDejCCAmKgAwIBAgIBITANBgkqhkiG9w0BAQUFADBkMQswCQYDVQQGEwJVUzEw
MC4GA1UEChMnTm9ib2R5IFJlYWxseSBMb29rcyBBdCBUaGlzIEFueXdheSBJbmMu
MSMwIQYDVQQDExpEZW1vIENlcnRpZmljYXRlIEF1dGhvcml0eTAeFw0xMDAzMjYw
MDA5MjRaFw0xMTAzMjcwMDA5MjRaMBwxGjAYBgNVBAMUESouZG91YmxlY2xpY2su
bmV0MIIBIjANBgkqhkiG9w0BAQEFAAOCAQ8AMIIBCgKCAQEAzOGvDyLdVIw8u20X
UtqrY4Kw6q2kWFpiVUWJh8/HJbL2SXysM4ghhs1q1YZL7jrVkSA5U7/CTmochKu+
U8D1ovwhQMfLT0xGDgJD4pjVCQ4YqANnyGQpQnS14C/hgYP3b2WFzhU7bB6kVb4N
7dmqJzSyNLz5+hOGFp/w9cz/sxi2BOA6xgcypcCqD6n/zBzeXK1TzgR4wgdq2PY9
DuUP1LoeE8D901n3mipSGkrWTTy7FJvLF7EJhsLJostLRi1sfBoeYNzCskw+Px+x
ZEFxvs3vdg3B6qyyHqSxsw6xwb/qubgR9YcXtWkCCmvbRebJjfS81s7CeTwVEvuX
vrAh7wIDAQABo38wfTAOBgNVHQ8BAf8EBAMCBPAwHQYDVR0OBBYEFKzMCRk21vFR
Y//UfckDNh1QXkb0MB8GA1UdIwQYMBaAFNXtoMtu3vJnVOFdKz6NfsSCbB0NMB0G
A1UdJQQWMBQGCCsGAQUFBwMBBggrBgEFBQcDAjAMBgNVHRMBAf8EAjAAMA0GCSqG
SIb3DQEBBQUAA4IBAQAgqIgwqxIkZ/w7YjbizoyXac3T0icpA33AM+S/v4h2xdsN
aEyAUCTgM+LyWTWqHddop54vf/Abdsl7MbFHDkqyZ2gd1nsc8BvTTzec0UClb5BR
nDgUE29JRfIIuU+jyNcRxr2nhWOqSNTzqSCKqeTf6u774W4swjgtov2pjjsK28Xc
pUvN/28claJqts3x0u62HqUppMGackekoJVN9+VJLS+GwQUvSw537jamGOgQ02rj
nvsaV8d7dJ8mq+G19hQjmBXSnBtfoTIWClx79QsnzVqfhFzZA123/ghqv3ka5z5u
q4JIeTJ2Ys7Qw7JJe+jWlrV3J+p/ilvuWgFOnqx1
-----END CERTIFICATE-----
