Certificate:
    Data:
        Version: 3 (0x2)
        Serial Number: 34 (0x22)
        Signature Algorithm: sha1WithRSAEncryption
        Issuer: C=US, O=Nobody Really Looks At This Anyway Inc., CN=Demo Certificate Authority
        Validity
            Not Before: Mar 26 00:09:26 2010 GMT
            Not After : Mar 27 00:09:26 2011 GMT
        Subject: CN=*.tcliveus.com
        Subject Public Key Info:
            Public Key Algorithm: rsaEncryption
            RSA Public Key: (2048 bit)
                Modulus (2048 bit):
                    00:ec:02:07:d9:e1:77:45:8d:b2:cc:63:14:3d:00:
                    f1:d3:30:57:16:e8:99:47:a1:7e:ff:49:2e:06:0a:
                    a4:e4:5d:d9:88:c9:28:5e:43:ca:b4:92:b0:9c:f9:
                    b3:10:00:79:db:cb:3f:05:e7:d5:81:c2:95:1a:b6:
                    07:23:bc:ae:94:aa:e9:22:fd:f2:b5:fe:df:b8:70:
                    e7:f1:1d:f0:a3:7d:3d:bb:6d:1d:57:93:ef:2f:e9:
                    b4:20:f4:67:ed:f7:a0:f4:df:ce:ea:e8:40:5c:d2:
                    79:b8:d7:bd:63:80:77:4f:62:e7:cf:e4:8d:93:bf:
                    9f:54:11:83:6a:84:4d:ea:1d:d7:66:d2:5d:1c:08:
                    e1:7c:44:eb:ef:7e:05:b5:c5:21:4f:f8:42:f5:e2:
                    5d:4a:6e:8e:37:e9:d6:52:9a:8a:52:8b:72:7d:5c:
                    e0:23:65:d4:92:98:d9:03:f9:48:b1:d4:55:2d:e4:
                    58:90:68:46:20:a0:18:87:e3:7e:42:8f:09:8a:61:
                    68:c3:b0:ee:fb:a2:cf:57:90:04:1c:63:90:87:e0:
                    ab:a7:d6:5b:23:2a:4b:9a:44:78:56:3d:02:51:1b:
                    5c:d6:51:c7:32:a6:bd:9d:12:9a:26:b2:65:f3:6a:
                    3e:75:7a:31:ec:e3:5c:87:48:c0:c4:5f:65:36:dc:
                    fa:5b
                Exponent: 65537 (0x10001)
        X509v3 extensions:
            X509v3 Key Usage: critical
                Digital Signature, Non Repudiation, Key Encipherment, Data Encipherment
            X509v3 Subject Key Identifier: 
                7C:26:71:CA:52:57:23:62:37:B6:F3:8B:2E:A0:EB:40:5F:50:8D:EF
            X509v3 Authority Key Identifier: 
                keyid:D5:ED:A0:CB:6E:DE:F2:67:54:E1:5D:2B:3E:8D:7E:C4:82:6C:1D:0D

            X509v3 Extended Key Usage: 
                TLS Web Server Authentication, TLS Web Client Authentication
            X509v3 Basic Constraints: critical
                CA:FALSE
    Signature Algorithm: sha1WithRSAEncryption
        82:94:ce:4a:49:59:a6:74:cc:4e:92:1d:e0:4e:b8:ed:85:96:
        b0:6a:9b:f6:b2:c2:43:5d:5c:1c:fd:5a:b7:f2:74:d5:7c:c3:
        ac:74:52:d4:43:07:55:49:8d:ac:82:e0:0f:a7:b0:48:09:04:
        c5:2f:3d:37:08:4d:d3:69:8f:46:f0:56:3a:94:d6:59:e5:6a:
        63:6c:14:fe:18:f8:1e:b9:0f:a1:ca:2c:e1:c8:a9:75:39:52:
        7e:ab:f3:6d:5d:a3:e5:a0:8d:c6:68:05:25:f3:05:df:57:73:
        99:d3:f2:4a:1a:67:11:6b:1f:36:4b:17:90:5a:41:ce:87:f7:
        19:a0:97:9e:82:7f:70:f4:16:63:10:08:44:df:80:9a:fd:e9:
        9e:cd:c0:64:a6:c0:0f:1e:cc:a8:9c:c5:bf:03:1c:7f:31:5d:
        f7:57:83:65:f6:b0:d0:1f:44:ca:77:02:e4:f0:3c:40:b5:bf:
        b2:83:34:02:05:d0:65:4d:36:8f:00:0e:55:b5:19:38:c5:ff:
        6e:c8:0d:e4:d5:9d:76:e9:ed:9c:b9:06:ba:4e:af:a1:ed:59:
        d6:2e:bf:30:df:46:5a:05:ad:1a:7c:d7:32:c2:06:df:76:12:
        63:50:92:0f:7a:db:17:c1:a6:a1:5c:88:00:3b:2e:7a:01:23:
        66:14:0f:a7
-----BEGIN CERTIFICATE-----
MIIDdzCCAl+gAwIBAgIBIjANBgkqhkiG9w0BAQUFADBkMQswCQYDVQQGEwJVUzEw
MC4GA1UEChMnTm9ib2R5IFJlYWxseSBMb29rcyBBdCBUaGlzIEFueXdheSBJbmMu
MSMwIQYDVQQDExpEZW1vIENlcnRpZmljYXRlIEF1dGhvcml0eTAeFw0xMDAzMjYw
MDA5MjZaFw0xMTAzMjcwMDA5MjZaMBkxFzAVBgNVBAMUDioudGNsaXZldXMuY29t
MIIBIjANBgkqhkiG9w0BAQEFAAOCAQ8AMIIBCgKCAQEA7AIH2eF3RY2yzGMUPQDx
0zBXFuiZR6F+/0kuBgqk5F3ZiMkoXkPKtJKwnPmzEAB528s/BefVgcKVGrYHI7yu
lKrpIv3ytf7fuHDn8R3wo309u20dV5PvL+m0IPRn7feg9N/O6uhAXNJ5uNe9Y4B3
T2Lnz+SNk7+fVBGDaoRN6h3XZtJdHAjhfETr734FtcUhT/hC9eJdSm6ON+nWUpqK
UotyfVzgI2XUkpjZA/lIsdRVLeRYkGhGIKAYh+N+Qo8JimFow7Du+6LPV5AEHGOQ
h+Crp9ZbIypLmkR4Vj0CURtc1lHHMqa9nRKaJrJl82o+dXox7ONch0jAxF9lNtz6
WwIDAQABo38wfTAOBgNVHQ8BAf8EBAMCBPAwHQYDVR0OBBYEFHwmccpSVyNiN7bz
iy6g60BfUI3vMB8GA1UdIwQYMBaAFNXtoMtu3vJnVOFdKz6NfsSCbB0NMB0GA1Ud
JQQWMBQGCCsGAQUFBwMBBggrBgEFBQcDAjAMBgNVHRMBAf8EAjAAMA0GCSqGSIb3
DQEBBQUAA4IBAQCClM5KSVmmdMxOkh3gTrjthZawapv2ssJDXVwc/Vq38nTVfMOs
dFLUQwdVSY2sguAPp7BICQTFLz03CE3TaY9G8FY6lNZZ5WpjbBT+GPgeuQ+hyizh
yKl1OVJ+q/NtXaPloI3GaAUl8wXfV3OZ0/JKGmcRax82SxeQWkHOh/cZoJeegn9w
9BZjEAhE34Ca/emezcBkpsAPHsyonMW/Axx/MV33V4Nl9rDQH0TKdwLk8DxAtb+y
gzQCBdBlTTaPAA5VtRk4xf9uyA3k1Z126e2cuQa6Tq+h7VnWLr8w30ZaBa0afNcy
wgbfdhJjUJIPetsXwaahXIgAOy56ASNmFA+n
-----END CERTIFICATE-----
