Certificate:
    Data:
        Version: 3 (0x2)
        Serial Number: 2 (0x2)
        Signature Algorithm: sha1WithRSAEncryption
        Issuer: C=US, O=Nobody Really Looks At This Anyway Inc., CN=Demo Certificate Authority
        Validity
            Not Before: Jul 25 22:50:00 2010 GMT
            Not After : Apr 20 22:50:00 2013 GMT
        Subject: CN=*.googleapis.com
        Subject Public Key Info:
            Public Key Algorithm: rsaEncryption
            RSA Public Key: (2048 bit)
                Modulus (2048 bit):
                    00:c3:cc:6d:1d:3c:b0:b3:51:88:38:64:1b:d3:cb:
                    e1:79:00:5f:5b:e2:c3:9a:9a:dc:a8:3a:a9:07:c4:
                    99:32:4e:7e:a2:7b:cb:99:3a:ee:5c:67:bd:83:e4:
                    b7:1f:dc:33:38:2a:58:86:b4:76:63:f2:65:e5:f7:
                    4f:dc:1c:2b:2f:52:30:16:97:20:8b:cb:3d:11:1b:
                    e3:e8:95:09:ef:30:9b:42:a9:f1:55:41:0a:4f:11:
                    f7:d0:b8:06:89:a9:ed:6f:d3:be:43:41:f1:40:26:
                    a5:d4:6a:de:da:26:39:70:77:f3:35:04:69:60:43:
                    94:85:52:00:9b:f4:c8:85:69:d4:cc:bf:7f:96:61:
                    d4:56:08:66:46:5a:d6:6e:da:2a:fe:1e:40:bd:10:
                    ad:91:11:67:a1:eb:43:18:af:44:fb:06:6d:47:1e:
                    37:1e:21:22:26:f4:f8:4b:da:d4:19:2e:1c:76:61:
                    ba:28:8b:09:b0:4d:5c:ed:ba:3f:5f:ce:bd:39:9f:
                    da:54:ad:2f:e2:72:07:99:a7:ce:5d:d1:68:05:09:
                    24:3f:02:8e:9e:5a:63:0e:a1:8a:6a:e6:ba:dc:14:
                    ae:c2:d9:dc:18:de:15:eb:4f:60:41:7a:29:4c:a1:
                    88:f6:6a:67:d2:6c:06:a1:ad:0f:0b:ba:05:f8:2b:
                    3d:c1
                Exponent: 65537 (0x10001)
        X509v3 extensions:
            X509v3 Key Usage: critical
                Digital Signature, Non Repudiation, Key Encipherment, Data Encipherment
            X509v3 Subject Key Identifier: 
                A7:DD:44:A3:74:D5:03:B4:59:2D:29:D6:8E:46:C4:6D:91:3B:4A:A1
            X509v3 Authority Key Identifier: 
                keyid:84:39:A5:38:E7:82:EF:D2:26:B9:34:2B:2E:F7:25:62:AD:79:BF:DE

            X509v3 Extended Key Usage: 
                TLS Web Server Authentication, TLS Web Client Authentication
            X509v3 Basic Constraints: critical
                CA:FALSE
    Signature Algorithm: sha1WithRSAEncryption
        ad:4b:ad:b3:a6:0e:73:33:bb:b4:c2:83:be:b8:d5:14:b0:70:
        b8:70:45:77:99:e7:c7:42:23:94:e8:9f:2e:ce:f4:6b:fc:c4:
        3f:54:60:3b:16:38:30:13:fd:24:56:78:49:ae:72:d9:7a:64:
        d5:a1:5d:26:6b:af:0a:2a:27:0b:dc:54:8a:c2:e9:b4:0a:f8:
        09:34:87:bc:f2:af:9a:fa:3b:ae:92:13:f0:32:9e:be:5f:c1:
        3b:4a:93:6d:4c:e0:4a:e2:15:d5:bb:0b:e8:88:1d:26:5a:1d:
        66:c6:60:3f:e3:39:3a:a8:e4:de:dc:90:48:4a:92:13:3c:64:
        f4:32:9f:98:2d:de:e7:9c:b5:a3:26:36:20:8e:0d:30:1f:0a:
        fb:0b:cb:d1:52:66:b9:8f:29:55:08:dc:0d:53:b8:8b:51:b2:
        ac:84:33:c1:8d:55:29:18:11:9d:72:0c:ff:af:2d:95:9d:77:
        ab:b8:e6:57:01:df:54:a8:d3:2d:96:2f:76:92:74:90:66:2d:
        1d:41:f9:b7:ec:d7:43:9e:7d:b9:c9:04:14:70:9b:d0:e7:5b:
        6f:e8:23:1c:18:c1:75:48:7d:0e:89:fe:47:72:d8:63:58:a8:
        32:83:45:38:30:06:13:41:2b:59:2e:b2:62:9c:fc:91:fb:3b:
        46:44:f3:1d
-----BEGIN CERTIFICATE-----
MIIDeTCCAmGgAwIBAgIBAjANBgkqhkiG9w0BAQUFADBkMQswCQYDVQQGEwJVUzEw
MC4GA1UEChMnTm9ib2R5IFJlYWxseSBMb29rcyBBdCBUaGlzIEFueXdheSBJbmMu
MSMwIQYDVQQDExpEZW1vIENlcnRpZmljYXRlIEF1dGhvcml0eTAeFw0xMDA3MjUy
MjUwMDBaFw0xMzA0MjAyMjUwMDBaMBsxGTAXBgNVBAMUECouZ29vZ2xlYXBpcy5j
b20wggEiMA0GCSqGSIb3DQEBAQUAA4IBDwAwggEKAoIBAQDDzG0dPLCzUYg4ZBvT
y+F5AF9b4sOamtyoOqkHxJkyTn6ie8uZOu5cZ72D5Lcf3DM4KliGtHZj8mXl90/c
HCsvUjAWlyCLyz0RG+PolQnvMJtCqfFVQQpPEffQuAaJqe1v075DQfFAJqXUat7a
Jjlwd/M1BGlgQ5SFUgCb9MiFadTMv3+WYdRWCGZGWtZu2ir+HkC9EK2REWeh60MY
r0T7Bm1HHjceISIm9PhL2tQZLhx2YbooiwmwTVztuj9fzr05n9pUrS/icgeZp85d
0WgFCSQ/Ao6eWmMOoYpq5rrcFK7C2dwY3hXrT2BBeilMoYj2amfSbAahrQ8LugX4
Kz3BAgMBAAGjfzB9MA4GA1UdDwEB/wQEAwIE8DAdBgNVHQ4EFgQUp91Eo3TVA7RZ
LSnWjkbEbZE7SqEwHwYDVR0jBBgwFoAUhDmlOOeC79ImuTQrLvclYq15v94wHQYD
VR0lBBYwFAYIKwYBBQUHAwEGCCsGAQUFBwMCMAwGA1UdEwEB/wQCMAAwDQYJKoZI
hvcNAQEFBQADggEBAK1LrbOmDnMzu7TCg7641RSwcLhwRXeZ58dCI5Tony7O9Gv8
xD9UYDsWODAT/SRWeEmuctl6ZNWhXSZrrwoqJwvcVIrC6bQK+Ak0h7zyr5r6O66S
E/Aynr5fwTtKk21M4EriFdW7C+iIHSZaHWbGYD/jOTqo5N7ckEhKkhM8ZPQyn5gt
3uectaMmNiCODTAfCvsLy9FSZrmPKVUI3A1TuItRsqyEM8GNVSkYEZ1yDP+vLZWd
d6u45lcB31So0y2WL3aSdJBmLR1B+bfs10OefbnJBBRwm9DnW2/oIxwYwXVIfQ6J
/kdy2GNYqDKDRTgwBhNBK1kusmKc/JH7O0ZE8x0=
-----END CERTIFICATE-----
