Certificate:
    Data:
        Version: 3 (0x2)
        Serial Number: 3 (0x3)
        Signature Algorithm: sha1WithRSAEncryption
        Issuer: C=US, O=Nobody Really Looks At This Anyway Inc., CN=Demo Certificate Authority
        Validity
            Not Before: Jul 25 22:50:01 2010 GMT
            Not After : Apr 20 22:50:01 2013 GMT
        Subject: CN=s3.amazonaws.com
        Subject Public Key Info:
            Public Key Algorithm: rsaEncryption
            RSA Public Key: (2048 bit)
                Modulus (2048 bit):
                    00:de:fc:ec:d5:a4:1a:c9:f6:3e:f9:23:d0:2d:ca:
                    cf:4b:74:85:8f:2c:8c:e7:c8:00:a8:40:67:73:d7:
                    a5:e2:41:14:de:03:79:75:f8:53:1b:d5:3a:69:ee:
                    cd:22:70:d3:4e:46:f1:6e:72:81:43:e1:91:05:b6:
                    28:32:1b:5b:7b:b8:a4:72:76:b1:0c:20:36:b3:1f:
                    98:8e:cd:61:b9:79:b2:f5:fd:08:e2:73:64:10:30:
                    7e:44:a5:d8:eb:db:b3:cd:00:c1:5f:1c:7c:4b:33:
                    14:f8:2c:82:c5:4e:07:74:c3:65:ba:bc:58:70:39:
                    a0:3f:48:d4:7d:16:b8:f9:7b:bc:08:0e:13:3e:ca:
                    63:ab:58:3f:db:2e:ad:08:ef:ed:e6:14:e8:0d:8c:
                    71:a4:76:23:ed:fa:4d:e1:6a:d5:2e:da:47:57:26:
                    4f:8f:47:59:5c:46:7a:c0:5f:58:c9:9d:ca:fa:5b:
                    12:84:95:70:77:e2:1c:1d:be:ca:14:3e:0f:6c:ab:
                    6e:40:a1:44:57:05:b8:f5:15:70:3c:22:34:ec:7a:
                    35:15:48:c2:3c:95:10:54:fe:63:cf:e2:04:1e:23:
                    c4:b0:c2:d9:f3:35:89:5e:e2:dc:3d:63:62:28:e0:
                    b3:c8:e5:ee:63:dd:ae:23:04:ab:c7:5d:84:9c:9d:
                    12:59
                Exponent: 65537 (0x10001)
        X509v3 extensions:
            X509v3 Key Usage: critical
                Digital Signature, Non Repudiation, Key Encipherment, Data Encipherment
            X509v3 Subject Key Identifier: 
                C2:B1:55:BB:5A:00:70:AE:C6:6F:AD:6D:3C:AD:CD:57:DE:F4:3B:5E
            X509v3 Authority Key Identifier: 
                keyid:84:39:A5:38:E7:82:EF:D2:26:B9:34:2B:2E:F7:25:62:AD:79:BF:DE

            X509v3 Extended Key Usage: 
                TLS Web Server Authentication, TLS Web Client Authentication
            X509v3 Basic Constraints: critical
                CA:FALSE
    Signature Algorithm: sha1WithRSAEncryption
        61:dd:5b:a1:da:d6:4b:18:17:45:ce:7d:71:ba:68:86:be:bc:
        49:98:95:2c:4d:85:6e:ca:40:2d:80:d5:90:7e:da:c7:4e:62:
        33:d4:89:3a:72:a4:fd:cf:18:a8:76:05:b3:90:bc:0e:20:97:
        80:50:e3:e0:f0:55:a3:34:49:01:af:90:25:4c:06:a9:61:df:
        47:26:a8:2e:f4:2b:19:d5:09:25:17:bf:18:7c:3c:30:14:17:
        d1:b1:bd:2a:c5:38:e3:06:f6:f4:5b:f8:51:9d:88:6e:c6:ac:
        2f:97:cc:1a:42:9d:bc:fa:71:b1:da:6f:f9:4f:1f:dd:59:63:
        5a:62:c9:3e:67:94:1b:82:31:38:56:b9:76:7c:27:ae:6a:94:
        3d:54:95:48:53:4d:7a:7c:3e:50:ea:c9:d2:07:a6:44:6e:1b:
        33:e7:68:3b:4b:52:0e:5a:30:ed:90:03:dc:52:45:70:9e:4f:
        84:ee:16:79:d7:73:6e:45:ec:8b:27:d3:df:0b:db:74:e3:f7:
        46:5a:bc:62:ba:46:5a:af:48:6c:b2:0d:3c:13:fb:2e:c8:62:
        e2:c5:4c:06:87:ed:cd:99:95:58:ea:5a:90:66:30:4f:1d:6d:
        d7:8a:b2:e8:f5:07:3b:52:4e:07:7b:ed:be:7b:58:ab:53:e7:
        09:09:e2:ab
-----BEGIN CERTIFICATE-----
MIIDeTCCAmGgAwIBAgIBAzANBgkqhkiG9w0BAQUFADBkMQswCQYDVQQGEwJVUzEw
MC4GA1UEChMnTm9ib2R5IFJlYWxseSBMb29rcyBBdCBUaGlzIEFueXdheSBJbmMu
MSMwIQYDVQQDExpEZW1vIENlcnRpZmljYXRlIEF1dGhvcml0eTAeFw0xMDA3MjUy
MjUwMDFaFw0xMzA0MjAyMjUwMDFaMBsxGTAXBgNVBAMTEHMzLmFtYXpvbmF3cy5j
b20wggEiMA0GCSqGSIb3DQEBAQUAA4IBDwAwggEKAoIBAQDe/OzVpBrJ9j75I9At
ys9LdIWPLIznyACoQGdz16XiQRTeA3l1+FMb1Tpp7s0icNNORvFucoFD4ZEFtigy
G1t7uKRydrEMIDazH5iOzWG5ebL1/Qjic2QQMH5Epdjr27PNAMFfHHxLMxT4LILF
Tgd0w2W6vFhwOaA/SNR9Frj5e7wIDhM+ymOrWD/bLq0I7+3mFOgNjHGkdiPt+k3h
atUu2kdXJk+PR1lcRnrAX1jJncr6WxKElXB34hwdvsoUPg9sq25AoURXBbj1FXA8
IjTsejUVSMI8lRBU/mPP4gQeI8SwwtnzNYle4tw9Y2Io4LPI5e5j3a4jBKvHXYSc
nRJZAgMBAAGjfzB9MA4GA1UdDwEB/wQEAwIE8DAdBgNVHQ4EFgQUwrFVu1oAcK7G
b61tPK3NV970O14wHwYDVR0jBBgwFoAUhDmlOOeC79ImuTQrLvclYq15v94wHQYD
VR0lBBYwFAYIKwYBBQUHAwEGCCsGAQUFBwMCMAwGA1UdEwEB/wQCMAAwDQYJKoZI
hvcNAQEFBQADggEBAGHdW6Ha1ksYF0XOfXG6aIa+vEmYlSxNhW7KQC2A1ZB+2sdO
YjPUiTpypP3PGKh2BbOQvA4gl4BQ4+DwVaM0SQGvkCVMBqlh30cmqC70KxnVCSUX
vxh8PDAUF9GxvSrFOOMG9vRb+FGdiG7GrC+XzBpCnbz6cbHab/lPH91ZY1piyT5n
lBuCMThWuXZ8J65qlD1UlUhTTXp8PlDqydIHpkRuGzPnaDtLUg5aMO2QA9xSRXCe
T4TuFnnXc25F7Isn098L23Tj90ZavGK6RlqvSGyyDTwT+y7IYuLFTAaH7c2ZlVjq
WpBmME8dbdeKsuj1BztSTgd77b57WKtT5wkJ4qs=
-----END CERTIFICATE-----
