Certificate:
    Data:
        Version: 3 (0x2)
        Serial Number: 4 (0x4)
        Signature Algorithm: sha1WithRSAEncryption
        Issuer: C=US, O=Nobody Really Looks At This Anyway Inc., CN=Demo Certificate Authority
        Validity
            Not Before: Jul 26 01:01:12 2010 GMT
            Not After : Apr 21 01:01:12 2013 GMT
        Subject: CN=*.s3.amazonaws.com
        Subject Public Key Info:
            Public Key Algorithm: rsaEncryption
            RSA Public Key: (2048 bit)
                Modulus (2048 bit):
                    00:c7:19:ac:da:ea:4b:14:e0:51:4c:a1:da:16:ac:
                    1e:91:a4:ac:c1:f2:1e:c6:e2:83:7d:87:41:cd:42:
                    aa:c0:2c:b4:d8:85:a2:4c:d2:ac:1d:88:9d:8a:f4:
                    6c:5d:7f:ec:d2:08:0f:c7:73:f7:05:47:bd:b8:38:
                    22:c1:06:49:bd:35:15:9c:52:94:1a:cb:66:52:98:
                    6a:44:5e:f6:9f:43:42:70:11:1a:6f:8b:94:ca:1b:
                    8b:99:c3:df:a5:66:8f:44:2c:c9:20:ca:95:53:32:
                    82:3d:23:15:e3:5d:5e:bf:48:9d:97:07:82:9a:74:
                    8a:65:b6:1f:20:a0:9c:19:80:6d:85:64:d7:a7:bb:
                    61:e2:12:fd:84:73:a7:05:be:11:94:13:37:52:ea:
                    6a:88:2c:84:d6:43:b3:9f:f4:7d:59:7e:92:83:af:
                    6a:5f:47:19:38:d4:48:c1:da:7c:16:5a:80:4d:89:
                    f7:42:7f:60:f6:7a:df:a3:8a:a7:5f:00:74:2c:ff:
                    e4:5d:7f:41:11:f7:8d:46:c2:be:d5:b3:a2:09:01:
                    bf:44:b8:3a:57:ea:d6:50:81:c3:0e:fb:1b:b6:fc:
                    30:57:1b:db:40:fe:b3:54:fa:bc:38:fd:0d:a5:b0:
                    b0:bb:61:fc:3a:d1:56:5a:65:d2:67:9c:a8:cb:fd:
                    aa:97
                Exponent: 65537 (0x10001)
        X509v3 extensions:
            X509v3 Key Usage: critical
                Digital Signature, Non Repudiation, Key Encipherment, Data Encipherment
            X509v3 Subject Key Identifier: 
                1E:63:3F:05:F1:F9:D4:96:24:01:9A:EC:D4:98:62:9D:D0:B1:9E:94
            X509v3 Authority Key Identifier: 
                keyid:84:39:A5:38:E7:82:EF:D2:26:B9:34:2B:2E:F7:25:62:AD:79:BF:DE

            X509v3 Extended Key Usage: 
                TLS Web Server Authentication, TLS Web Client Authentication
            X509v3 Basic Constraints: critical
                CA:FALSE
    Signature Algorithm: sha1WithRSAEncryption
        46:6b:13:cd:d4:9a:3f:6d:78:f4:e3:01:86:17:d2:f8:28:ba:
        2a:dd:1f:ef:52:5a:b0:9a:11:26:65:0d:f4:1a:cf:f4:34:8b:
        d6:1b:c6:9e:e8:e8:cc:ff:c0:17:7b:82:61:8e:9f:63:ec:ff:
        77:87:aa:0d:ed:d9:5f:8e:de:16:76:68:e7:52:41:ba:55:d8:
        07:e5:79:39:03:35:bc:1b:68:16:30:ca:74:96:ac:09:e3:10:
        b0:a7:83:0a:9c:d9:22:78:37:80:9a:cd:c6:2e:f7:c7:0c:14:
        65:5b:b4:62:5c:d2:fa:af:8e:65:16:b9:82:eb:64:54:b0:31:
        7f:24:6e:cc:50:83:07:6a:10:05:c1:d7:1a:e3:33:76:a7:d7:
        1e:cc:e3:de:be:38:5f:04:ae:81:07:83:25:46:b0:4d:c4:30:
        e1:e5:9f:e4:73:a3:24:5b:9c:f5:e1:2a:ee:66:65:01:e2:2e:
        12:b3:5d:b0:06:ed:07:8c:ca:96:5f:da:bc:9c:09:da:84:2b:
        2b:55:4e:f1:d5:ea:42:83:0f:eb:73:cb:2f:ed:14:38:a6:04:
        6d:04:a8:23:88:80:87:86:0e:89:e4:58:88:db:4f:93:b2:03:
        41:35:36:b9:c4:04:3b:56:49:f5:59:24:e8:80:f4:25:d8:9c:
        1c:9d:44:1c
-----BEGIN CERTIFICATE-----
MIIDezCCAmOgAwIBAgIBBDANBgkqhkiG9w0BAQUFADBkMQswCQYDVQQGEwJVUzEw
MC4GA1UEChMnTm9ib2R5IFJlYWxseSBMb29rcyBBdCBUaGlzIEFueXdheSBJbmMu
MSMwIQYDVQQDExpEZW1vIENlcnRpZmljYXRlIEF1dGhvcml0eTAeFw0xMDA3MjYw
MTAxMTJaFw0xMzA0MjEwMTAxMTJaMB0xGzAZBgNVBAMUEiouczMuYW1hem9uYXdz
LmNvbTCCASIwDQYJKoZIhvcNAQEBBQADggEPADCCAQoCggEBAMcZrNrqSxTgUUyh
2hasHpGkrMHyHsbig32HQc1CqsAstNiFokzSrB2InYr0bF1/7NIID8dz9wVHvbg4
IsEGSb01FZxSlBrLZlKYakRe9p9DQnARGm+LlMobi5nD36Vmj0QsySDKlVMygj0j
FeNdXr9InZcHgpp0imW2HyCgnBmAbYVk16e7YeIS/YRzpwW+EZQTN1LqaogshNZD
s5/0fVl+koOval9HGTjUSMHafBZagE2J90J/YPZ636OKp18AdCz/5F1/QRH3jUbC
vtWzogkBv0S4Olfq1lCBww77G7b8MFcb20D+s1T6vDj9DaWwsLth/DrRVlpl0mec
qMv9qpcCAwEAAaN/MH0wDgYDVR0PAQH/BAQDAgTwMB0GA1UdDgQWBBQeYz8F8fnU
liQBmuzUmGKd0LGelDAfBgNVHSMEGDAWgBSEOaU454Lv0ia5NCsu9yVirXm/3jAd
BgNVHSUEFjAUBggrBgEFBQcDAQYIKwYBBQUHAwIwDAYDVR0TAQH/BAIwADANBgkq
hkiG9w0BAQUFAAOCAQEARmsTzdSaP2149OMBhhfS+Ci6Kt0f71JasJoRJmUN9BrP
9DSL1hvGnujozP/AF3uCYY6fY+z/d4eqDe3ZX47eFnZo51JBulXYB+V5OQM1vBto
FjDKdJasCeMQsKeDCpzZIng3gJrNxi73xwwUZVu0YlzS+q+OZRa5gutkVLAxfyRu
zFCDB2oQBcHXGuMzdqfXHszj3r44XwSugQeDJUawTcQw4eWf5HOjJFuc9eEq7mZl
AeIuErNdsAbtB4zKll/avJwJ2oQrK1VO8dXqQoMP63PLL+0UOKYEbQSoI4iAh4YO
ieRYiNtPk7IDQTU2ucQEO1ZJ9Vkk6ID0JdicHJ1EHA==
-----END CERTIFICATE-----
