Certificate:
    Data:
        Version: 3 (0x2)
        Serial Number: 5 (0x5)
        Signature Algorithm: sha1WithRSAEncryption
        Issuer: C=US, O=Nobody Really Looks At This Anyway Inc., CN=Demo Certificate Authority
        Validity
            Not Before: Jul 26 01:03:21 2010 GMT
            Not After : Apr 21 01:03:21 2013 GMT
        Subject: CN=twitter.com
        Subject Public Key Info:
            Public Key Algorithm: rsaEncryption
            RSA Public Key: (2048 bit)
                Modulus (2048 bit):
                    00:aa:92:06:3b:d3:23:b9:b7:df:bd:10:55:01:ba:
                    7f:01:f0:aa:6b:72:20:77:b9:3a:4b:ea:40:ea:7f:
                    2f:6e:a7:fa:56:6c:ba:c5:ff:5e:9d:b5:65:1c:b0:
                    ad:56:61:02:21:d9:fc:98:6b:9f:f5:d3:43:7d:d8:
                    01:a3:ca:b8:f0:a4:ce:d2:a5:47:18:cb:ec:c6:ad:
                    5e:e3:32:a8:41:9f:b3:06:23:eb:17:ae:42:3f:19:
                    a3:5d:49:16:a0:a3:7c:b1:03:a2:08:ad:9e:1b:37:
                    98:dd:54:26:cd:af:e6:41:66:69:b2:63:c8:24:ab:
                    57:49:17:0d:08:05:84:f6:dc:fa:63:7f:80:d7:72:
                    70:a6:28:ac:15:6d:04:3b:e4:1c:5f:f2:71:bb:fb:
                    db:ff:d9:ce:fe:c9:eb:f8:48:25:35:4a:ab:2d:f7:
                    3b:f3:e9:48:37:a2:08:ab:b2:95:34:69:43:20:8c:
                    36:22:26:53:f7:31:4d:70:16:cc:1c:a9:f3:f1:84:
                    25:ad:06:18:af:d5:71:da:6c:bc:86:b9:12:1e:55:
                    9d:87:c9:67:e8:6c:9e:37:b0:9a:b9:84:18:49:42:
                    f1:6e:dc:e0:ad:a0:ba:e9:28:a7:79:2a:10:55:a7:
                    d0:ea:99:89:69:13:60:f5:d8:c1:94:12:7b:88:c0:
                    88:15
                Exponent: 65537 (0x10001)
        X509v3 extensions:
            X509v3 Key Usage: critical
                Digital Signature, Non Repudiation, Key Encipherment, Data Encipherment
            X509v3 Subject Key Identifier: 
                6E:E7:08:12:62:B9:05:EE:60:B2:58:EA:99:09:A1:0D:6A:54:1F:EB
            X509v3 Authority Key Identifier: 
                keyid:84:39:A5:38:E7:82:EF:D2:26:B9:34:2B:2E:F7:25:62:AD:79:BF:DE

            X509v3 Extended Key Usage: 
                TLS Web Server Authentication, TLS Web Client Authentication
            X509v3 Basic Constraints: critical
                CA:FALSE
    Signature Algorithm: sha1WithRSAEncryption
        78:28:f8:50:2c:34:a6:16:fb:c3:12:b5:e2:84:81:0a:85:74:
        d6:e0:e9:98:a0:d9:69:ec:7a:7a:92:91:03:46:56:d5:f1:22:
        67:a8:d4:4f:14:d3:a8:62:85:a0:dc:37:76:26:e3:75:bd:c9:
        93:98:da:38:35:d6:37:a1:02:f3:64:aa:32:4f:0a:e8:0e:ed:
        96:c4:d0:cc:e9:9e:c0:bb:24:bc:73:a9:0d:59:98:f4:71:c5:
        36:21:43:d7:a8:98:4d:c4:e8:29:5f:4e:b4:56:3a:f4:b3:b1:
        1c:73:cb:56:a8:f2:f3:1e:f4:15:94:76:a6:0f:54:80:08:16:
        b0:87:d1:dd:d7:df:6b:94:0c:60:e6:a7:e0:51:56:a6:2b:b2:
        2e:ae:e8:54:bd:ee:d8:0f:7a:b6:b9:e9:24:5f:a7:7e:c6:10:
        af:e1:5f:20:91:c0:c7:9c:7d:f2:56:a4:80:69:83:f3:82:14:
        79:90:f6:df:b5:83:35:12:01:76:7e:ef:d4:f2:10:1d:c9:18:
        d6:f0:85:43:a3:54:fe:bd:3b:93:55:91:ff:54:c2:f4:56:ae:
        5b:cf:cc:14:aa:89:3b:7c:58:4f:d1:38:d0:0c:c8:62:68:52:
        42:60:5c:66:e5:d2:e5:39:4d:e4:5a:75:c3:c5:8b:d5:2f:91:
        1d:76:7e:c6
-----BEGIN CERTIFICATE-----
MIIDdDCCAlygAwIBAgIBBTANBgkqhkiG9w0BAQUFADBkMQswCQYDVQQGEwJVUzEw
MC4GA1UEChMnTm9ib2R5IFJlYWxseSBMb29rcyBBdCBUaGlzIEFueXdheSBJbmMu
MSMwIQYDVQQDExpEZW1vIENlcnRpZmljYXRlIEF1dGhvcml0eTAeFw0xMDA3MjYw
MTAzMjFaFw0xMzA0MjEwMTAzMjFaMBYxFDASBgNVBAMTC3R3aXR0ZXIuY29tMIIB
IjANBgkqhkiG9w0BAQEFAAOCAQ8AMIIBCgKCAQEAqpIGO9MjubffvRBVAbp/AfCq
a3Igd7k6S+pA6n8vbqf6Vmy6xf9enbVlHLCtVmECIdn8mGuf9dNDfdgBo8q48KTO
0qVHGMvsxq1e4zKoQZ+zBiPrF65CPxmjXUkWoKN8sQOiCK2eGzeY3VQmza/mQWZp
smPIJKtXSRcNCAWE9tz6Y3+A13JwpiisFW0EO+QcX/Jxu/vb/9nO/snr+EglNUqr
Lfc78+lIN6IIq7KVNGlDIIw2IiZT9zFNcBbMHKnz8YQlrQYYr9Vx2my8hrkSHlWd
h8ln6GyeN7CauYQYSULxbtzgraC66SineSoQVafQ6pmJaRNg9djBlBJ7iMCIFQID
AQABo38wfTAOBgNVHQ8BAf8EBAMCBPAwHQYDVR0OBBYEFG7nCBJiuQXuYLJY6pkJ
oQ1qVB/rMB8GA1UdIwQYMBaAFIQ5pTjngu/SJrk0Ky73JWKteb/eMB0GA1UdJQQW
MBQGCCsGAQUFBwMBBggrBgEFBQcDAjAMBgNVHRMBAf8EAjAAMA0GCSqGSIb3DQEB
BQUAA4IBAQB4KPhQLDSmFvvDErXihIEKhXTW4OmYoNlp7Hp6kpEDRlbV8SJnqNRP
FNOoYoWg3Dd2JuN1vcmTmNo4NdY3oQLzZKoyTwroDu2WxNDM6Z7AuyS8c6kNWZj0
ccU2IUPXqJhNxOgpX060Vjr0s7Ecc8tWqPLzHvQVlHamD1SACBawh9Hd199rlAxg
5qfgUVamK7IuruhUve7YD3q2uekkX6d+xhCv4V8gkcDHnH3yVqSAaYPzghR5kPbf
tYM1EgF2fu/U8hAdyRjW8IVDo1T+vTuTVZH/VML0Vq5bz8wUqok7fFhP0TjQDMhi
aFJCYFxm5dLlOU3kWnXDxYvVL5Eddn7G
-----END CERTIFICATE-----
