Certificate:
    Data:
        Version: 3 (0x2)
        Serial Number: 6 (0x6)
        Signature Algorithm: sha1WithRSAEncryption
        Issuer: C=US, O=Nobody Really Looks At This Anyway Inc., CN=Demo Certificate Authority
        Validity
            Not Before: Jul 26 01:04:40 2010 GMT
            Not After : Apr 21 01:04:40 2013 GMT
        Subject: CN=www.chase.com
        Subject Public Key Info:
            Public Key Algorithm: rsaEncryption
            RSA Public Key: (2048 bit)
                Modulus (2048 bit):
                    00:f9:b5:3b:95:e6:da:d1:6e:c7:4f:f4:8a:e4:cf:
                    5d:8b:10:f3:71:ec:d6:f8:00:3c:ed:0e:85:bb:f2:
                    63:26:0f:38:6f:17:45:67:a4:a8:68:fb:91:36:63:
                    f6:dc:5e:91:5f:20:1e:cf:b2:fc:ec:a2:ca:a3:45:
                    fe:e2:c6:45:e9:99:ba:81:b1:4f:35:a2:44:af:76:
                    f1:5e:b5:f1:e9:83:44:9d:2b:36:e5:89:25:7c:a1:
                    50:f0:17:e6:63:d5:00:d8:15:71:40:c7:57:6e:94:
                    c1:7f:4f:70:fc:3b:c9:8a:10:a7:d6:b3:b5:5d:3d:
                    31:ca:f9:2b:37:09:f4:3d:3e:9a:96:11:64:9e:12:
                    3e:0b:c5:7e:ff:db:63:28:41:ad:ce:56:d7:ba:10:
                    1f:e2:5b:ed:e0:74:d9:4c:d4:af:15:8b:d8:87:d8:
                    a6:84:71:9e:bf:95:a7:f4:49:47:30:5a:8d:c5:c0:
                    4c:7d:ac:91:53:2d:60:01:3b:6a:8d:02:05:c1:ec:
                    91:92:2e:df:5c:26:60:2b:a5:57:34:0d:9c:eb:fa:
                    51:64:26:3d:39:0d:31:56:29:a8:24:36:e7:cf:31:
                    0c:c9:84:32:f7:f4:60:ce:d3:6a:c4:d2:f1:99:44:
                    58:0a:0b:8c:74:50:4b:99:77:5a:11:81:96:6e:29:
                    87:e7
                Exponent: 65537 (0x10001)
        X509v3 extensions:
            X509v3 Key Usage: critical
                Digital Signature, Non Repudiation, Key Encipherment, Data Encipherment
            X509v3 Subject Key Identifier: 
                A5:8E:F4:B5:21:6E:88:2A:F6:C8:D5:94:E2:86:D5:F0:08:1C:B6:BE
            X509v3 Authority Key Identifier: 
                keyid:84:39:A5:38:E7:82:EF:D2:26:B9:34:2B:2E:F7:25:62:AD:79:BF:DE

            X509v3 Extended Key Usage: 
                TLS Web Server Authentication, TLS Web Client Authentication
            X509v3 Basic Constraints: critical
                CA:FALSE
    Signature Algorithm: sha1WithRSAEncryption
        1a:cd:e7:4e:c6:25:05:9f:02:b0:9d:38:d0:b5:e9:ad:9a:17:
        75:1f:7e:e5:78:b1:3f:ed:d4:66:8c:2d:50:79:0b:cd:c4:a8:
        07:9e:e4:a6:71:0f:37:f9:19:40:23:7b:35:d5:07:ce:37:3a:
        d3:17:f2:59:34:a5:e0:3f:7a:07:cb:9d:dc:8f:67:60:1b:c6:
        be:34:88:2d:15:fc:a2:8f:08:1d:19:95:f6:3f:45:69:f5:48:
        cb:86:60:2d:82:c8:a7:ad:77:c9:75:6a:5a:b6:11:10:c6:75:
        36:57:4c:1e:aa:7b:dd:5a:a2:ed:d5:99:26:ca:25:8f:36:c6:
        63:a2:b8:1d:df:7e:3f:13:e1:44:85:20:2b:88:32:03:b6:5a:
        85:e1:4b:ac:13:bc:52:81:55:be:76:38:85:b3:0b:cf:c5:bf:
        67:a0:ef:ec:cb:62:d4:18:45:c5:f6:4e:e1:28:2e:a7:df:a5:
        a0:03:f8:37:2a:d4:6e:74:4d:51:be:d8:05:63:2c:d7:b2:86:
        27:bd:4f:83:b4:0e:59:23:5a:c4:cd:aa:39:af:99:d4:94:0a:
        3b:fe:d5:1c:ea:d4:60:f8:a3:e2:6d:7d:bf:12:7e:ea:0a:3b:
        5c:f9:f9:c2:c9:b9:98:1f:19:69:f1:15:03:38:66:b2:77:d1:
        06:b5:3b:ab
-----BEGIN CERTIFICATE-----
MIIDdjCCAl6gAwIBAgIBBjANBgkqhkiG9w0BAQUFADBkMQswCQYDVQQGEwJVUzEw
MC4GA1UEChMnTm9ib2R5IFJlYWxseSBMb29rcyBBdCBUaGlzIEFueXdheSBJbmMu
MSMwIQYDVQQDExpEZW1vIENlcnRpZmljYXRlIEF1dGhvcml0eTAeFw0xMDA3MjYw
MTA0NDBaFw0xMzA0MjEwMTA0NDBaMBgxFjAUBgNVBAMTDXd3dy5jaGFzZS5jb20w
ggEiMA0GCSqGSIb3DQEBAQUAA4IBDwAwggEKAoIBAQD5tTuV5trRbsdP9Irkz12L
EPNx7Nb4ADztDoW78mMmDzhvF0VnpKho+5E2Y/bcXpFfIB7PsvzsosqjRf7ixkXp
mbqBsU81okSvdvFetfHpg0SdKzbliSV8oVDwF+Zj1QDYFXFAx1dulMF/T3D8O8mK
EKfWs7VdPTHK+Ss3CfQ9PpqWEWSeEj4LxX7/22MoQa3OVte6EB/iW+3gdNlM1K8V
i9iH2KaEcZ6/laf0SUcwWo3FwEx9rJFTLWABO2qNAgXB7JGSLt9cJmArpVc0DZzr
+lFkJj05DTFWKagkNufPMQzJhDL39GDO02rE0vGZRFgKC4x0UEuZd1oRgZZuKYfn
AgMBAAGjfzB9MA4GA1UdDwEB/wQEAwIE8DAdBgNVHQ4EFgQUpY70tSFuiCr2yNWU
4obV8Agctr4wHwYDVR0jBBgwFoAUhDmlOOeC79ImuTQrLvclYq15v94wHQYDVR0l
BBYwFAYIKwYBBQUHAwEGCCsGAQUFBwMCMAwGA1UdEwEB/wQCMAAwDQYJKoZIhvcN
AQEFBQADggEBABrN507GJQWfArCdONC16a2aF3UffuV4sT/t1GaMLVB5C83EqAee
5KZxDzf5GUAjezXVB843OtMX8lk0peA/egfLndyPZ2Abxr40iC0V/KKPCB0ZlfY/
RWn1SMuGYC2CyKetd8l1alq2ERDGdTZXTB6qe91aou3VmSbKJY82xmOiuB3ffj8T
4USFICuIMgO2WoXhS6wTvFKBVb52OIWzC8/Fv2eg7+zLYtQYRcX2TuEoLqffpaAD
+Dcq1G50TVG+2AVjLNeyhie9T4O0DlkjWsTNqjmvmdSUCjv+1Rzq1GD4o+Jtfb8S
fuoKO1z5+cLJuZgfGWnxFQM4ZrJ30Qa1O6s=
-----END CERTIFICATE-----
