Certificate:
    Data:
        Version: 3 (0x2)
        Serial Number: 7 (0x7)
        Signature Algorithm: sha1WithRSAEncryption
        Issuer: C=US, O=Nobody Really Looks At This Anyway Inc., CN=Demo Certificate Authority
        Validity
            Not Before: Jul 26 01:05:11 2010 GMT
            Not After : Apr 21 01:05:11 2013 GMT
        Subject: CN=chaseonline.chase.com
        Subject Public Key Info:
            Public Key Algorithm: rsaEncryption
            RSA Public Key: (2048 bit)
                Modulus (2048 bit):
                    00:be:7d:c0:71:31:a5:ee:00:3e:5e:ec:78:4b:d6:
                    78:61:4a:74:8b:b8:b5:64:3e:b2:8d:3f:60:fe:8e:
                    2f:d7:fc:9c:92:88:69:f0:51:63:bb:b3:f0:4f:4b:
                    e7:cc:bd:9c:d7:51:2a:ed:67:36:69:55:d0:e3:b0:
                    6f:79:05:a4:eb:57:ab:af:25:bc:b5:ab:bc:35:38:
                    49:79:53:01:0d:01:11:42:20:b3:0d:00:01:2f:b5:
                    9c:0b:87:ef:c0:84:17:0f:ce:8e:39:d8:89:13:79:
                    31:84:5b:21:60:53:09:f9:9c:e5:59:4f:e3:b3:c5:
                    59:f5:6e:17:9f:9e:aa:51:02:f3:4f:58:ea:5c:dc:
                    dc:dc:6a:40:bd:eb:de:47:be:ed:80:5f:a1:e0:e6:
                    e6:7b:1b:42:89:af:a9:94:a2:4c:f3:94:0f:04:80:
                    ff:eb:3a:19:f0:61:7e:4b:0f:14:de:ab:e8:13:91:
                    3b:dd:74:44:1e:76:18:d2:c8:64:ab:bd:21:cc:92:
                    b1:33:35:ec:11:84:99:1a:aa:c8:72:4e:e6:ae:e2:
                    7b:71:a7:6d:df:7f:c9:76:99:8e:00:8a:87:27:77:
                    73:d9:ac:d7:a5:dc:37:6e:28:44:e3:a1:72:bb:26:
                    90:20:ec:72:c0:cc:e5:4f:6a:00:13:f0:97:e6:29:
                    cd:b1
                Exponent: 65537 (0x10001)
        X509v3 extensions:
            X509v3 Key Usage: critical
                Digital Signature, Non Repudiation, Key Encipherment, Data Encipherment
            X509v3 Subject Key Identifier: 
                24:B7:94:AD:21:92:1D:82:BF:CE:96:3B:3D:07:3B:5F:B8:C0:91:C6
            X509v3 Authority Key Identifier: 
                keyid:84:39:A5:38:E7:82:EF:D2:26:B9:34:2B:2E:F7:25:62:AD:79:BF:DE

            X509v3 Extended Key Usage: 
                TLS Web Server Authentication, TLS Web Client Authentication
            X509v3 Basic Constraints: critical
                CA:FALSE
    Signature Algorithm: sha1WithRSAEncryption
        6a:e4:38:de:a9:2f:6f:e6:67:11:0b:7d:f5:aa:ec:3f:56:21:
        47:e4:4b:31:3c:e9:7b:16:aa:0d:0d:bb:e1:20:92:20:fa:44:
        bc:b5:ac:44:12:d7:0a:06:b6:32:da:da:24:5f:7a:a9:6a:e6:
        f6:39:3b:23:c5:93:30:2d:f7:97:d9:77:a0:e6:d8:28:af:e6:
        e5:ac:16:7a:e3:1e:f8:26:3c:d7:95:18:04:f7:fc:b8:23:aa:
        72:28:0b:e9:24:19:95:f9:46:85:eb:51:90:a5:97:43:03:d5:
        2f:2e:20:72:1e:53:c3:58:3d:74:06:a6:19:c8:55:2e:b3:c8:
        30:1f:97:63:22:e1:a9:a3:89:4c:7a:d4:d5:73:27:df:99:43:
        c4:ba:a5:c3:dd:14:23:d6:c1:03:bd:3a:cb:3a:7f:e3:ca:59:
        25:65:b3:21:ce:7b:db:39:62:35:00:38:7d:ec:b7:bb:6b:c8:
        22:e6:7c:c0:f7:59:c2:a8:21:3d:c3:44:99:61:f5:e6:d9:ab:
        23:79:90:3a:7a:02:db:22:66:e4:05:74:f4:2f:fd:50:b8:4d:
        1a:ac:b2:f3:bb:c8:55:8c:aa:e1:8e:a9:57:88:82:ce:ef:8a:
        3a:b1:13:4b:69:a4:84:9a:44:7c:b5:84:a8:5f:df:64:66:e1:
        1b:88:49:86
-----BEGIN CERTIFICATE-----
MIIDfjCCAmagAwIBAgIBBzANBgkqhkiG9w0BAQUFADBkMQswCQYDVQQGEwJVUzEw
MC4GA1UEChMnTm9ib2R5IFJlYWxseSBMb29rcyBBdCBUaGlzIEFueXdheSBJbmMu
MSMwIQYDVQQDExpEZW1vIENlcnRpZmljYXRlIEF1dGhvcml0eTAeFw0xMDA3MjYw
MTA1MTFaFw0xMzA0MjEwMTA1MTFaMCAxHjAcBgNVBAMTFWNoYXNlb25saW5lLmNo
YXNlLmNvbTCCASIwDQYJKoZIhvcNAQEBBQADggEPADCCAQoCggEBAL59wHExpe4A
Pl7seEvWeGFKdIu4tWQ+so0/YP6OL9f8nJKIafBRY7uz8E9L58y9nNdRKu1nNmlV
0OOwb3kFpOtXq68lvLWrvDU4SXlTAQ0BEUIgsw0AAS+1nAuH78CEFw/OjjnYiRN5
MYRbIWBTCfmc5VlP47PFWfVuF5+eqlEC809Y6lzc3NxqQL3r3ke+7YBfoeDm5nsb
QomvqZSiTPOUDwSA/+s6GfBhfksPFN6r6BORO910RB52GNLIZKu9IcySsTM17BGE
mRqqyHJO5q7ie3Gnbd9/yXaZjgCKhyd3c9ms16XcN24oROOhcrsmkCDscsDM5U9q
ABPwl+YpzbECAwEAAaN/MH0wDgYDVR0PAQH/BAQDAgTwMB0GA1UdDgQWBBQkt5St
IZIdgr/Oljs9BztfuMCRxjAfBgNVHSMEGDAWgBSEOaU454Lv0ia5NCsu9yVirXm/
3jAdBgNVHSUEFjAUBggrBgEFBQcDAQYIKwYBBQUHAwIwDAYDVR0TAQH/BAIwADAN
BgkqhkiG9w0BAQUFAAOCAQEAauQ43qkvb+ZnEQt99arsP1YhR+RLMTzpexaqDQ27
4SCSIPpEvLWsRBLXCga2MtraJF96qWrm9jk7I8WTMC33l9l3oObYKK/m5awWeuMe
+CY815UYBPf8uCOqcigL6SQZlflGhetRkKWXQwPVLy4gch5Tw1g9dAamGchVLrPI
MB+XYyLhqaOJTHrU1XMn35lDxLqlw90UI9bBA706yzp/48pZJWWzIc572zliNQA4
fey3u2vIIuZ8wPdZwqghPcNEmWH15tmrI3mQOnoC2yJm5AV09C/9ULhNGqyy87vI
VYyq4Y6pV4iCzu+KOrETS2mkhJpEfLWEqF/fZGbhG4hJhg==
-----END CERTIFICATE-----
