Certificate:
    Data:
        Version: 3 (0x2)
        Serial Number: 8 (0x8)
        Signature Algorithm: sha1WithRSAEncryption
        Issuer: C=US, O=Nobody Really Looks At This Anyway Inc., CN=Demo Certificate Authority
        Validity
            Not Before: Jul 26 01:05:24 2010 GMT
            Not After : Apr 21 01:05:24 2013 GMT
        Subject: CN=*.doubleclick.net
        Subject Public Key Info:
            Public Key Algorithm: rsaEncryption
            RSA Public Key: (2048 bit)
                Modulus (2048 bit):
                    00:aa:ff:ef:89:53:14:0a:ac:d0:dc:51:0e:9d:1e:
                    66:8b:5d:21:f4:d3:ff:9d:b5:c8:91:52:cb:d0:c5:
                    e7:fa:6b:d5:c9:d9:ea:5a:52:2f:a0:ad:e8:d4:c2:
                    dd:61:f0:c3:1c:ac:00:e4:ac:eb:45:2f:d4:f0:a6:
                    0c:10:55:6e:9b:23:2a:80:c8:b3:32:e0:1e:8a:9a:
                    cd:72:5d:e1:b1:eb:24:df:16:e2:2f:73:90:3a:35:
                    a5:17:4d:de:9c:31:22:8d:a1:c8:b6:ec:62:5c:e6:
                    00:40:49:47:99:9d:f7:ad:a6:5c:f0:e0:8d:09:4b:
                    52:04:da:a0:7f:48:15:ba:de:04:74:74:b4:12:6a:
                    0e:dd:09:d1:a5:8e:34:f0:fd:5c:7f:94:bd:ff:b4:
                    fa:8a:57:6e:aa:cb:11:e8:0f:1b:fe:72:f3:d8:f4:
                    1a:1b:8f:59:81:e9:a1:df:b6:6f:e6:b0:58:e7:83:
                    07:92:59:f7:eb:80:80:04:3c:15:df:16:c3:ec:fc:
                    e9:2f:48:af:43:1b:42:25:47:af:d6:27:be:12:80:
                    cb:1d:29:19:c3:0e:3b:ac:17:c0:52:15:e8:ca:3e:
                    bd:bf:46:19:0a:2a:14:a5:3b:60:34:41:b8:73:3e:
                    68:3b:85:81:1b:59:50:0b:f1:a6:7f:61:4d:78:3b:
                    00:59
                Exponent: 65537 (0x10001)
        X509v3 extensions:
            X509v3 Key Usage: critical
                Digital Signature, Non Repudiation, Key Encipherment, Data Encipherment
            X509v3 Subject Key Identifier: 
                54:60:6D:37:76:A9:56:CA:02:86:1A:98:57:00:89:F5:FC:0C:8A:0A
            X509v3 Authority Key Identifier: 
                keyid:84:39:A5:38:E7:82:EF:D2:26:B9:34:2B:2E:F7:25:62:AD:79:BF:DE

            X509v3 Extended Key Usage: 
                TLS Web Server Authentication, TLS Web Client Authentication
            X509v3 Basic Constraints: critical
                CA:FALSE
    Signature Algorithm: sha1WithRSAEncryption
        b6:db:47:c6:bc:0f:b3:fd:67:33:4c:24:96:be:48:49:82:9c:
        17:cd:ba:6b:ac:12:50:84:b8:19:2e:71:fc:e8:83:19:ca:2f:
        21:a5:26:fd:2a:22:43:de:9d:de:37:7b:d9:16:d2:5d:42:38:
        7e:18:8a:35:4b:10:f5:72:51:03:ea:60:eb:95:64:0d:56:c1:
        a1:1d:10:b0:67:4d:44:54:5e:ac:c9:ca:02:11:9c:a5:b0:b5:
        c6:0e:b7:b1:d3:11:41:70:2a:72:ea:03:50:ff:9a:64:9f:ff:
        67:73:03:c9:f8:ac:84:bd:d1:d3:cb:80:be:e7:03:79:d1:36:
        23:77:dd:2b:7f:9b:de:a4:a9:4c:e8:9d:37:f6:bf:7b:08:ec:
        4f:72:1e:b0:74:51:8e:c1:15:86:5c:c6:ba:4c:1f:ea:d8:26:
        a2:23:5b:e7:22:3f:1f:83:f6:c7:1b:a4:4c:d8:02:33:c6:31:
        f0:20:49:88:2c:94:67:00:52:10:eb:3f:e1:7e:65:d1:31:a1:
        4d:88:17:72:48:31:75:3f:80:68:85:1c:cd:9f:26:65:19:6d:
        af:eb:4a:0e:be:5c:4b:52:f3:2d:85:e7:05:03:79:a6:4c:dd:
        c3:00:c2:49:0a:28:4d:62:ee:3f:33:9b:ff:3e:6f:b9:1e:4a:
        03:b1:86:48
-----BEGIN CERTIFICATE-----
MIIDejCCAmKgAwIBAgIBCDANBgkqhkiG9w0BAQUFADBkMQswCQYDVQQGEwJVUzEw
MC4GA1UEChMnTm9ib2R5IFJlYWxseSBMb29rcyBBdCBUaGlzIEFueXdheSBJbmMu
MSMwIQYDVQQDExpEZW1vIENlcnRpZmljYXRlIEF1dGhvcml0eTAeFw0xMDA3MjYw
MTA1MjRaFw0xMzA0MjEwMTA1MjRaMBwxGjAYBgNVBAMUESouZG91YmxlY2xpY2su
bmV0MIIBIjANBgkqhkiG9w0BAQEFAAOCAQ8AMIIBCgKCAQEAqv/viVMUCqzQ3FEO
nR5mi10h9NP/nbXIkVLL0MXn+mvVydnqWlIvoK3o1MLdYfDDHKwA5KzrRS/U8KYM
EFVumyMqgMizMuAeiprNcl3hsesk3xbiL3OQOjWlF03enDEijaHItuxiXOYAQElH
mZ33raZc8OCNCUtSBNqgf0gVut4EdHS0EmoO3QnRpY408P1cf5S9/7T6ilduqssR
6A8b/nLz2PQaG49Zgemh37Zv5rBY54MHkln364CABDwV3xbD7PzpL0ivQxtCJUev
1ie+EoDLHSkZww47rBfAUhXoyj69v0YZCioUpTtgNEG4cz5oO4WBG1lQC/Gmf2FN
eDsAWQIDAQABo38wfTAOBgNVHQ8BAf8EBAMCBPAwHQYDVR0OBBYEFFRgbTd2qVbK
AoYamFcAifX8DIoKMB8GA1UdIwQYMBaAFIQ5pTjngu/SJrk0Ky73JWKteb/eMB0G
A1UdJQQWMBQGCCsGAQUFBwMBBggrBgEFBQcDAjAMBgNVHRMBAf8EAjAAMA0GCSqG
SIb3DQEBBQUAA4IBAQC220fGvA+z/WczTCSWvkhJgpwXzbprrBJQhLgZLnH86IMZ
yi8hpSb9KiJD3p3eN3vZFtJdQjh+GIo1SxD1clED6mDrlWQNVsGhHRCwZ01EVF6s
ycoCEZylsLXGDrex0xFBcCpy6gNQ/5pkn/9ncwPJ+KyEvdHTy4C+5wN50TYjd90r
f5vepKlM6J039r97COxPch6wdFGOwRWGXMa6TB/q2CaiI1vnIj8fg/bHG6RM2AIz
xjHwIEmILJRnAFIQ6z/hfmXRMaFNiBdySDF1P4BohRzNnyZlGW2v60oOvlxLUvMt
hecFA3mmTN3DAMJJCihNYu4/M5v/Pm+5HkoDsYZI
-----END CERTIFICATE-----
