Certificate:
    Data:
        Version: 3 (0x2)
        Serial Number: 9 (0x9)
        Signature Algorithm: sha1WithRSAEncryption
        Issuer: C=US, O=Nobody Really Looks At This Anyway Inc., CN=Demo Certificate Authority
        Validity
            Not Before: Jul 26 01:05:41 2010 GMT
            Not After : Apr 21 01:05:41 2013 GMT
        Subject: CN=mfasa.chase.com
        Subject Public Key Info:
            Public Key Algorithm: rsaEncryption
            RSA Public Key: (2048 bit)
                Modulus (2048 bit):
                    00:a5:5e:29:d6:71:97:36:0c:cb:d0:b4:2e:3d:7b:
                    75:70:e8:5f:44:1b:5b:b6:0c:4c:44:00:53:77:14:
                    be:35:43:20:72:e8:cc:63:c8:6d:5f:f5:5a:45:e3:
                    5f:f4:3a:eb:08:2b:31:63:ee:da:2b:fe:29:16:c5:
                    2c:32:da:94:c8:4a:af:ff:53:53:c2:48:0d:bf:0d:
                    1e:83:d9:8a:0f:59:a1:71:d1:22:91:30:bb:0f:71:
                    01:95:41:ab:60:26:bc:ab:ec:1d:44:45:db:2b:4b:
                    b4:f3:63:24:72:7e:3b:f8:57:4f:b3:68:94:f0:34:
                    8a:86:d2:a9:9a:b2:40:11:c6:13:83:94:79:c4:a7:
                    95:d7:78:57:0b:4d:14:84:1d:70:ea:05:7e:89:14:
                    c2:80:5b:4c:fd:22:d3:b8:48:94:a8:77:58:b2:19:
                    ef:f9:85:b4:85:b1:83:6c:b0:d4:af:a8:e5:93:7a:
                    bb:98:a6:80:5a:fc:b0:e5:b5:d8:d8:f4:a3:af:69:
                    92:55:11:fd:7c:48:3c:bf:85:01:10:74:68:8b:e7:
                    b1:3c:f7:a2:1b:db:b0:d9:b3:7c:40:aa:ac:4d:4f:
                    f0:63:33:09:63:7d:26:e6:2a:16:1f:68:b1:f2:a6:
                    aa:76:e3:50:95:6f:25:74:71:df:d6:65:27:6e:68:
                    22:d9
                Exponent: 65537 (0x10001)
        X509v3 extensions:
            X509v3 Key Usage: critical
                Digital Signature, Non Repudiation, Key Encipherment, Data Encipherment
            X509v3 Subject Key Identifier: 
                1C:D3:A2:94:E1:C1:77:ED:B3:AB:34:42:29:D9:AE:38:17:76:E4:23
            X509v3 Authority Key Identifier: 
                keyid:84:39:A5:38:E7:82:EF:D2:26:B9:34:2B:2E:F7:25:62:AD:79:BF:DE

            X509v3 Extended Key Usage: 
                TLS Web Server Authentication, TLS Web Client Authentication
            X509v3 Basic Constraints: critical
                CA:FALSE
    Signature Algorithm: sha1WithRSAEncryption
        0e:75:af:6c:c0:f6:aa:3c:37:71:0e:e4:fd:24:2c:fd:f5:38:
        b9:7f:a5:09:ea:49:02:c9:ff:86:03:8c:b8:b7:d8:4a:70:2f:
        67:b3:ef:13:b0:08:16:bf:8a:3e:85:cc:3f:3f:3c:87:49:ce:
        14:2d:90:58:b0:8a:e6:b0:4e:d8:7b:cb:69:7f:fa:63:5f:d5:
        e1:6a:f2:61:7c:ab:b4:cd:9e:1c:03:d3:99:6e:72:20:7b:30:
        a3:8f:3e:92:18:d7:93:bb:5a:3f:b5:36:8a:00:d3:b1:d1:ce:
        02:4f:43:cb:b0:ed:9d:eb:77:b6:c8:b0:e3:b7:c9:35:b4:12:
        b6:89:57:68:68:22:bc:5d:01:cf:82:b4:28:de:b6:1e:62:a2:
        3e:1d:4d:27:9a:95:3c:9f:2b:00:8e:98:12:55:84:e0:bf:c9:
        53:bd:b0:7d:47:85:90:9a:f5:aa:e2:0c:c4:e8:2d:cf:cb:ee:
        bf:0a:05:11:e8:04:d6:47:c7:97:63:6a:6a:b6:66:47:ca:60:
        dc:88:bd:69:3b:3d:88:74:a8:72:04:4d:68:e7:e0:7d:d9:a8:
        0d:b9:64:59:59:a1:05:a2:dd:fc:4c:3b:db:71:5c:06:b9:36:
        22:1b:a1:74:f1:b8:8d:40:4d:59:31:c9:ca:6a:90:97:5e:2b:
        52:b0:de:6e
-----BEGIN CERTIFICATE-----
MIIDeDCCAmCgAwIBAgIBCTANBgkqhkiG9w0BAQUFADBkMQswCQYDVQQGEwJVUzEw
MC4GA1UEChMnTm9ib2R5IFJlYWxseSBMb29rcyBBdCBUaGlzIEFueXdheSBJbmMu
MSMwIQYDVQQDExpEZW1vIENlcnRpZmljYXRlIEF1dGhvcml0eTAeFw0xMDA3MjYw
MTA1NDFaFw0xMzA0MjEwMTA1NDFaMBoxGDAWBgNVBAMTD21mYXNhLmNoYXNlLmNv
bTCCASIwDQYJKoZIhvcNAQEBBQADggEPADCCAQoCggEBAKVeKdZxlzYMy9C0Lj17
dXDoX0QbW7YMTEQAU3cUvjVDIHLozGPIbV/1WkXjX/Q66wgrMWPu2iv+KRbFLDLa
lMhKr/9TU8JIDb8NHoPZig9ZoXHRIpEwuw9xAZVBq2AmvKvsHURF2ytLtPNjJHJ+
O/hXT7NolPA0iobSqZqyQBHGE4OUecSnldd4VwtNFIQdcOoFfokUwoBbTP0i07hI
lKh3WLIZ7/mFtIWxg2yw1K+o5ZN6u5imgFr8sOW12Nj0o69pklUR/XxIPL+FARB0
aIvnsTz3ohvbsNmzfECqrE1P8GMzCWN9JuYqFh9osfKmqnbjUJVvJXRx39ZlJ25o
ItkCAwEAAaN/MH0wDgYDVR0PAQH/BAQDAgTwMB0GA1UdDgQWBBQc06KU4cF37bOr
NEIp2a44F3bkIzAfBgNVHSMEGDAWgBSEOaU454Lv0ia5NCsu9yVirXm/3jAdBgNV
HSUEFjAUBggrBgEFBQcDAQYIKwYBBQUHAwIwDAYDVR0TAQH/BAIwADANBgkqhkiG
9w0BAQUFAAOCAQEADnWvbMD2qjw3cQ7k/SQs/fU4uX+lCepJAsn/hgOMuLfYSnAv
Z7PvE7AIFr+KPoXMPz88h0nOFC2QWLCK5rBO2HvLaX/6Y1/V4WryYXyrtM2eHAPT
mW5yIHswo48+khjXk7taP7U2igDTsdHOAk9Dy7Dtnet3tsiw47fJNbQStolXaGgi
vF0Bz4K0KN62HmKiPh1NJ5qVPJ8rAI6YElWE4L/JU72wfUeFkJr1quIMxOgtz8vu
vwoFEegE1kfHl2NqarZmR8pg3Ii9aTs9iHSocgRNaOfgfdmoDblkWVmhBaLd/Ew7
23FcBrk2IhuhdPG4jUBNWTHJymqQl14rUrDebg==
-----END CERTIFICATE-----
