Certificate:
    Data:
        Version: 3 (0x2)
        Serial Number: 10 (0xa)
        Signature Algorithm: sha1WithRSAEncryption
        Issuer: C=US, O=Nobody Really Looks At This Anyway Inc., CN=Demo Certificate Authority
        Validity
            Not Before: Jul 27 00:23:03 2010 GMT
            Not After : Apr 22 00:23:03 2013 GMT
        Subject: CN=www.paypal.com
        Subject Public Key Info:
            Public Key Algorithm: rsaEncryption
            RSA Public Key: (2048 bit)
                Modulus (2048 bit):
                    00:b9:6c:57:34:a0:e4:15:1e:ac:19:e0:21:8b:ff:
                    83:da:c8:06:ad:11:be:e0:a0:69:d3:5b:2d:09:18:
                    1b:34:bb:d1:1f:92:71:5c:44:8b:0e:07:94:87:7b:
                    a1:23:87:ba:dc:37:1b:a1:a6:ce:f5:8f:8d:b7:40:
                    fb:f5:d1:2e:67:ad:08:0d:eb:21:c5:a0:3c:40:e8:
                    b8:76:4c:a2:ce:2a:80:5a:a7:35:ce:a1:ff:5b:5f:
                    e9:af:1a:e3:54:6c:6e:af:6a:f0:a4:f4:91:8e:55:
                    cf:f3:4f:bf:a7:7f:cb:a3:02:c1:c4:5a:c9:f6:71:
                    cd:7e:ef:b7:8f:8b:ec:1b:de:5e:25:ef:38:e6:a8:
                    23:0a:5f:26:ac:57:3c:7e:d2:90:be:8a:f9:0d:f7:
                    92:f0:36:4d:15:f3:6d:c3:82:c5:9d:fe:0f:f0:53:
                    01:db:0e:12:52:ff:70:43:e6:08:99:07:31:eb:22:
                    41:1a:1c:a8:3b:a7:55:9a:68:80:53:d6:66:43:bf:
                    3b:b5:6b:1d:99:31:9e:f7:5d:d5:4a:aa:e8:33:03:
                    40:60:c4:7e:32:25:a7:36:81:60:b5:22:f0:6c:52:
                    a1:29:0c:0f:84:53:7d:92:36:9a:91:e1:e3:34:08:
                    54:2f:e7:67:e0:b2:7b:28:67:dc:b6:bb:dd:bd:f1:
                    7f:03
                Exponent: 65537 (0x10001)
        X509v3 extensions:
            X509v3 Key Usage: critical
                Digital Signature, Non Repudiation, Key Encipherment, Data Encipherment
            X509v3 Subject Key Identifier: 
                0D:F3:4B:87:84:0A:56:3E:90:86:AE:ED:A6:41:47:9A:C3:1D:52:60
            X509v3 Authority Key Identifier: 
                keyid:84:39:A5:38:E7:82:EF:D2:26:B9:34:2B:2E:F7:25:62:AD:79:BF:DE

            X509v3 Extended Key Usage: 
                TLS Web Server Authentication, TLS Web Client Authentication
            X509v3 Basic Constraints: critical
                CA:FALSE
    Signature Algorithm: sha1WithRSAEncryption
        1c:74:03:a6:a8:34:4e:9b:2b:78:b3:22:25:ac:c7:89:2d:9c:
        b7:29:0a:22:41:4d:80:ea:fc:19:5a:34:58:16:02:7a:f3:7e:
        76:86:2a:be:f6:ae:9b:e1:52:5f:35:41:ac:be:3b:44:43:33:
        54:ab:e9:bc:8e:5a:84:04:a2:df:60:4b:61:02:70:19:34:d5:
        26:aa:02:30:af:df:1a:c7:9d:7f:37:1b:72:8b:32:0c:fb:04:
        10:4f:aa:91:8a:73:a2:3d:01:e5:7c:78:62:4f:04:bf:1b:44:
        6e:8e:1d:40:af:96:3f:22:ea:ea:c3:00:70:5d:2c:e0:0f:7d:
        4a:31:79:b5:5a:fa:85:ba:79:56:67:0a:b3:7c:2a:0a:9d:3f:
        58:00:f6:2b:e1:ac:74:22:9c:8e:a7:f3:bb:57:f2:fe:27:cd:
        e7:47:2b:73:9e:f9:a6:7c:fc:16:8f:08:d2:ab:2f:65:03:a5:
        4d:9a:37:50:9a:ce:d8:b9:27:e1:6b:d2:dc:0a:e2:d3:74:8a:
        84:86:3f:4c:34:1b:01:0d:26:25:38:63:dc:18:17:b7:50:65:
        30:76:ad:d8:bb:62:a6:a6:ec:61:ba:b0:a5:da:86:15:79:bd:
        77:60:f8:f4:3f:1e:e9:55:8d:70:f1:42:4b:c4:31:c7:f1:00:
        54:46:ea:f8
-----BEGIN CERTIFICATE-----
MIIDdzCCAl+gAwIBAgIBCjANBgkqhkiG9w0BAQUFADBkMQswCQYDVQQGEwJVUzEw
MC4GA1UEChMnTm9ib2R5IFJlYWxseSBMb29rcyBBdCBUaGlzIEFueXdheSBJbmMu
MSMwIQYDVQQDExpEZW1vIENlcnRpZmljYXRlIEF1dGhvcml0eTAeFw0xMDA3Mjcw
MDIzMDNaFw0xMzA0MjIwMDIzMDNaMBkxFzAVBgNVBAMTDnd3dy5wYXlwYWwuY29t
MIIBIjANBgkqhkiG9w0BAQEFAAOCAQ8AMIIBCgKCAQEAuWxXNKDkFR6sGeAhi/+D
2sgGrRG+4KBp01stCRgbNLvRH5JxXESLDgeUh3uhI4e63DcboabO9Y+Nt0D79dEu
Z60IDeshxaA8QOi4dkyiziqAWqc1zqH/W1/prxrjVGxur2rwpPSRjlXP80+/p3/L
owLBxFrJ9nHNfu+3j4vsG95eJe845qgjCl8mrFc8ftKQvor5DfeS8DZNFfNtw4LF
nf4P8FMB2w4SUv9wQ+YImQcx6yJBGhyoO6dVmmiAU9ZmQ787tWsdmTGe913VSqro
MwNAYMR+MiWnNoFgtSLwbFKhKQwPhFN9kjaakeHjNAhUL+dn4LJ7KGfctrvdvfF/
AwIDAQABo38wfTAOBgNVHQ8BAf8EBAMCBPAwHQYDVR0OBBYEFA3zS4eEClY+kIau
7aZBR5rDHVJgMB8GA1UdIwQYMBaAFIQ5pTjngu/SJrk0Ky73JWKteb/eMB0GA1Ud
JQQWMBQGCCsGAQUFBwMBBggrBgEFBQcDAjAMBgNVHRMBAf8EAjAAMA0GCSqGSIb3
DQEBBQUAA4IBAQAcdAOmqDROmyt4syIlrMeJLZy3KQoiQU2A6vwZWjRYFgJ68352
hiq+9q6b4VJfNUGsvjtEQzNUq+m8jlqEBKLfYEthAnAZNNUmqgIwr98ax51/Nxty
izIM+wQQT6qRinOiPQHlfHhiTwS/G0Rujh1Ar5Y/IurqwwBwXSzgD31KMXm1WvqF
unlWZwqzfCoKnT9YAPYr4ax0IpyOp/O7V/L+J83nRytznvmmfPwWjwjSqy9lA6VN
mjdQms7YuSfha9LcCuLTdIqEhj9MNBsBDSYlOGPcGBe3UGUwdq3Yu2KmpuxhurCl
2oYVeb13YPj0Px7pVY1w8UJLxDHH8QBURur4
-----END CERTIFICATE-----
