Certificate:
    Data:
        Version: 3 (0x2)
        Serial Number: 11 (0xb)
        Signature Algorithm: sha1WithRSAEncryption
        Issuer: C=US, O=Nobody Really Looks At This Anyway Inc., CN=Demo Certificate Authority
        Validity
            Not Before: Jul 27 00:28:32 2010 GMT
            Not After : Apr 22 00:28:32 2013 GMT
        Subject: CN=www.google.com
        Subject Public Key Info:
            Public Key Algorithm: rsaEncryption
            RSA Public Key: (2048 bit)
                Modulus (2048 bit):
                    00:e8:d9:32:cf:27:dd:8f:80:75:03:35:a5:60:dc:
                    b5:e9:7b:85:c5:ae:a4:fe:1e:d4:0d:1e:91:6f:31:
                    ae:44:dd:ea:f0:28:60:e2:e0:92:c2:46:dc:41:7e:
                    1b:c5:97:f3:0a:37:9b:91:64:ab:e0:ee:64:02:b6:
                    67:3d:91:9a:82:e2:a1:6e:c1:b2:be:1a:f7:36:d6:
                    6f:98:30:3e:53:6d:90:73:33:61:16:61:87:d6:8f:
                    a8:ba:60:a5:44:6f:c7:f2:fb:5c:b8:d5:8d:ae:d6:
                    87:1a:8e:b5:87:14:1c:0a:29:30:88:78:5b:2b:11:
                    2c:f6:92:79:f2:3a:3c:44:f2:9f:c2:94:aa:80:df:
                    ae:e9:e4:35:49:45:0b:94:b8:45:b6:57:7c:69:81:
                    b1:02:03:95:8a:10:e0:eb:54:05:92:81:58:4c:d8:
                    3e:09:87:9f:94:0d:ce:c3:93:77:53:55:d6:1d:68:
                    de:88:32:c2:50:d1:ee:a5:64:bf:00:87:d9:90:4d:
                    4e:99:89:62:53:35:b3:ea:01:c3:53:02:0a:83:54:
                    b5:e2:cf:7b:60:6d:96:7e:09:fa:47:df:3a:34:81:
                    12:76:07:8d:a1:d6:b0:97:6f:60:fd:44:86:d6:16:
                    6c:a1:35:6d:9d:c5:34:84:d2:7e:60:77:21:d3:76:
                    93:95
                Exponent: 65537 (0x10001)
        X509v3 extensions:
            X509v3 Key Usage: critical
                Digital Signature, Non Repudiation, Key Encipherment, Data Encipherment
            X509v3 Subject Key Identifier: 
                E4:25:33:61:45:F9:7F:23:27:4F:94:2C:D5:DA:31:08:F9:46:F6:C6
            X509v3 Authority Key Identifier: 
                keyid:84:39:A5:38:E7:82:EF:D2:26:B9:34:2B:2E:F7:25:62:AD:79:BF:DE

            X509v3 Extended Key Usage: 
                TLS Web Server Authentication, TLS Web Client Authentication
            X509v3 Basic Constraints: critical
                CA:FALSE
    Signature Algorithm: sha1WithRSAEncryption
        32:78:08:45:f2:94:64:ef:57:41:c4:60:2c:2e:53:d8:39:74:
        3a:f2:bc:e5:33:81:5b:0f:01:17:b0:13:fe:c0:97:24:57:05:
        7a:cc:7b:54:7b:78:05:fd:20:c7:6a:76:49:f6:0b:bb:e0:45:
        bb:c2:f1:57:1d:44:05:8b:4e:6e:23:e0:95:3d:0f:4b:4c:1f:
        b7:48:6f:30:de:92:ba:98:a3:70:e9:c4:5d:48:41:ae:a0:66:
        dd:d4:38:03:14:e6:7b:b6:d0:71:98:73:ee:00:45:b2:54:3e:
        63:b0:32:d6:bf:f7:fe:f6:5b:35:07:9b:66:34:79:52:c9:39:
        c8:7e:45:1f:64:a2:bc:c5:b2:33:dd:75:9d:63:62:77:71:28:
        73:be:c7:77:f4:a0:b9:ca:ec:5e:73:2f:6c:1e:0b:f6:53:a3:
        ed:bf:8c:44:61:e1:16:ce:57:3c:77:7d:fa:de:0b:82:78:ce:
        7d:0f:a5:76:47:e6:e2:2a:70:e4:aa:45:22:32:71:7b:a9:ad:
        70:47:cf:68:1f:90:7d:dc:05:bd:6c:3c:3b:04:e3:86:f2:c2:
        91:ef:8e:8b:cf:2e:27:58:d4:b7:0f:f6:8d:88:66:3a:37:8e:
        d0:b1:f0:01:cd:86:e9:b8:44:fe:69:fa:8e:f8:a0:58:f9:46:
        9d:57:98:7e
-----BEGIN CERTIFICATE-----
MIIDdzCCAl+gAwIBAgIBCzANBgkqhkiG9w0BAQUFADBkMQswCQYDVQQGEwJVUzEw
MC4GA1UEChMnTm9ib2R5IFJlYWxseSBMb29rcyBBdCBUaGlzIEFueXdheSBJbmMu
MSMwIQYDVQQDExpEZW1vIENlcnRpZmljYXRlIEF1dGhvcml0eTAeFw0xMDA3Mjcw
MDI4MzJaFw0xMzA0MjIwMDI4MzJaMBkxFzAVBgNVBAMTDnd3dy5nb29nbGUuY29t
MIIBIjANBgkqhkiG9w0BAQEFAAOCAQ8AMIIBCgKCAQEA6Nkyzyfdj4B1AzWlYNy1
6XuFxa6k/h7UDR6RbzGuRN3q8Chg4uCSwkbcQX4bxZfzCjebkWSr4O5kArZnPZGa
guKhbsGyvhr3NtZvmDA+U22QczNhFmGH1o+oumClRG/H8vtcuNWNrtaHGo61hxQc
CikwiHhbKxEs9pJ58jo8RPKfwpSqgN+u6eQ1SUULlLhFtld8aYGxAgOVihDg61QF
koFYTNg+CYeflA3Ow5N3U1XWHWjeiDLCUNHupWS/AIfZkE1OmYliUzWz6gHDUwIK
g1S14s97YG2Wfgn6R986NIESdgeNodawl29g/USG1hZsoTVtncU0hNJ+YHch03aT
lQIDAQABo38wfTAOBgNVHQ8BAf8EBAMCBPAwHQYDVR0OBBYEFOQlM2FF+X8jJ0+U
LNXaMQj5RvbGMB8GA1UdIwQYMBaAFIQ5pTjngu/SJrk0Ky73JWKteb/eMB0GA1Ud
JQQWMBQGCCsGAQUFBwMBBggrBgEFBQcDAjAMBgNVHRMBAf8EAjAAMA0GCSqGSIb3
DQEBBQUAA4IBAQAyeAhF8pRk71dBxGAsLlPYOXQ68rzlM4FbDwEXsBP+wJckVwV6
zHtUe3gF/SDHanZJ9gu74EW7wvFXHUQFi05uI+CVPQ9LTB+3SG8w3pK6mKNw6cRd
SEGuoGbd1DgDFOZ7ttBxmHPuAEWyVD5jsDLWv/f+9ls1B5tmNHlSyTnIfkUfZKK8
xbIz3XWdY2J3cShzvsd39KC5yuxecy9sHgv2U6Ptv4xEYeEWzlc8d3363guCeM59
D6V2R+biKnDkqkUiMnF7qa1wR89oH5B93AW9bDw7BOOG8sKR746Lzy4nWNS3D/aN
iGY6N47QsfABzYbpuET+afqO+KBY+UadV5h+
-----END CERTIFICATE-----
