Certificate:
    Data:
        Version: 3 (0x2)
        Serial Number: 12 (0xc)
        Signature Algorithm: sha1WithRSAEncryption
        Issuer: C=US, O=Nobody Really Looks At This Anyway Inc., CN=Demo Certificate Authority
        Validity
            Not Before: Jul 27 00:33:38 2010 GMT
            Not After : Apr 22 00:33:38 2013 GMT
        Subject: CN=www.paypalobjects.com
        Subject Public Key Info:
            Public Key Algorithm: rsaEncryption
            RSA Public Key: (2048 bit)
                Modulus (2048 bit):
                    00:d2:3e:f5:f3:e8:cc:6b:dd:88:6e:3f:70:bf:d4:
                    6b:f8:9d:91:35:08:6d:e3:7e:29:37:eb:5f:e9:26:
                    ff:1b:ef:fb:c1:2b:93:1d:42:87:f8:d6:96:e2:cb:
                    71:36:e7:a6:e9:75:73:a5:ad:95:a2:8f:e7:76:b0:
                    c8:c5:36:d7:73:e2:6f:4c:df:83:9b:dd:2d:1c:f2:
                    01:2f:36:d0:f5:32:32:24:76:ad:19:86:96:25:ec:
                    30:3d:5c:57:3a:0e:8e:8c:2b:0d:40:cc:ac:82:e6:
                    ab:47:45:05:23:ff:b8:a8:5d:f9:dd:39:e2:7c:24:
                    a2:88:fa:4a:46:96:1b:4f:a2:cd:ee:0b:bd:92:9b:
                    b1:fd:14:aa:0e:82:92:77:3b:ab:10:92:d1:fd:f7:
                    1b:10:c1:72:5b:e5:98:a2:4d:b6:ba:5d:88:23:34:
                    2f:20:69:51:6d:65:d1:90:34:6e:36:c3:aa:03:20:
                    6a:b9:a6:23:d3:4b:dd:2c:14:4a:5b:a4:d9:f2:a7:
                    c4:20:e6:5e:00:79:6a:7e:23:e7:b3:9c:7b:13:43:
                    04:0b:47:9d:eb:ac:4c:cc:de:fb:8c:94:59:90:94:
                    06:53:bb:7a:78:fc:1c:de:cc:aa:ba:80:60:c9:3d:
                    ac:ac:e9:5d:43:3e:d2:06:d8:cb:d4:4e:5e:58:34:
                    05:ed
                Exponent: 65537 (0x10001)
        X509v3 extensions:
            X509v3 Key Usage: critical
                Digital Signature, Non Repudiation, Key Encipherment, Data Encipherment
            X509v3 Subject Key Identifier: 
                86:90:49:B0:FD:10:B2:53:3B:42:35:18:52:51:93:E1:F7:3B:08:63
            X509v3 Authority Key Identifier: 
                keyid:84:39:A5:38:E7:82:EF:D2:26:B9:34:2B:2E:F7:25:62:AD:79:BF:DE

            X509v3 Extended Key Usage: 
                TLS Web Server Authentication, TLS Web Client Authentication
            X509v3 Basic Constraints: critical
                CA:FALSE
    Signature Algorithm: sha1WithRSAEncryption
        1e:91:bc:01:fa:4a:0a:6d:4a:a1:0a:20:6d:63:63:30:4d:3c:
        f4:bb:f7:e2:bc:1e:be:e6:da:19:65:07:59:b2:02:40:d4:eb:
        65:cc:b1:a1:1d:1e:64:c9:40:2d:d5:ea:c7:c8:85:cb:ad:e0:
        ee:49:00:39:fa:10:96:43:f9:ce:94:1a:cd:64:13:d5:dc:a6:
        a9:ab:d1:8c:23:1f:3d:75:c6:a8:71:56:6a:be:84:e7:d3:6d:
        6b:69:99:24:5c:1f:20:bc:b0:f7:85:02:17:48:ab:35:31:f7:
        9d:6e:b9:ac:df:ec:92:28:20:eb:b4:ea:dc:7d:88:6b:06:d3:
        7e:f7:3c:89:8d:cb:b1:b5:94:51:fa:d3:f7:52:56:22:d6:a3:
        58:0a:2a:be:40:53:e0:f6:47:5b:dc:ec:64:d2:06:62:db:fa:
        13:3f:13:bf:67:9f:4c:59:63:eb:ea:42:2e:28:9b:24:cd:6e:
        f5:20:af:83:c4:b6:28:09:94:99:98:e8:d5:d4:70:6a:d0:04:
        b6:4c:25:45:71:02:79:0d:a4:14:9e:2c:5d:6e:df:17:33:85:
        01:ab:ec:1b:af:43:1d:a7:df:15:6f:7f:3a:bd:97:bf:06:cd:
        ff:eb:6e:35:52:90:e7:e8:ea:b1:8f:d0:af:1d:ea:94:ba:7b:
        65:4d:72:0d
-----BEGIN CERTIFICATE-----
MIIDfjCCAmagAwIBAgIBDDANBgkqhkiG9w0BAQUFADBkMQswCQYDVQQGEwJVUzEw
MC4GA1UEChMnTm9ib2R5IFJlYWxseSBMb29rcyBBdCBUaGlzIEFueXdheSBJbmMu
MSMwIQYDVQQDExpEZW1vIENlcnRpZmljYXRlIEF1dGhvcml0eTAeFw0xMDA3Mjcw
MDMzMzhaFw0xMzA0MjIwMDMzMzhaMCAxHjAcBgNVBAMTFXd3dy5wYXlwYWxvYmpl
Y3RzLmNvbTCCASIwDQYJKoZIhvcNAQEBBQADggEPADCCAQoCggEBANI+9fPozGvd
iG4/cL/Ua/idkTUIbeN+KTfrX+km/xvv+8Erkx1Ch/jWluLLcTbnpul1c6WtlaKP
53awyMU213Pib0zfg5vdLRzyAS820PUyMiR2rRmGliXsMD1cVzoOjowrDUDMrILm
q0dFBSP/uKhd+d054nwkooj6SkaWG0+ize4LvZKbsf0Uqg6Cknc7qxCS0f33GxDB
clvlmKJNtrpdiCM0LyBpUW1l0ZA0bjbDqgMgarmmI9NL3SwUSluk2fKnxCDmXgB5
an4j57OcexNDBAtHneusTMze+4yUWZCUBlO7enj8HN7MqrqAYMk9rKzpXUM+0gbY
y9ROXlg0Be0CAwEAAaN/MH0wDgYDVR0PAQH/BAQDAgTwMB0GA1UdDgQWBBSGkEmw
/RCyUztCNRhSUZPh9zsIYzAfBgNVHSMEGDAWgBSEOaU454Lv0ia5NCsu9yVirXm/
3jAdBgNVHSUEFjAUBggrBgEFBQcDAQYIKwYBBQUHAwIwDAYDVR0TAQH/BAIwADAN
BgkqhkiG9w0BAQUFAAOCAQEAHpG8AfpKCm1KoQogbWNjME089Lv34rwevubaGWUH
WbICQNTrZcyxoR0eZMlALdXqx8iFy63g7kkAOfoQlkP5zpQazWQT1dymqavRjCMf
PXXGqHFWar6E59Nta2mZJFwfILyw94UCF0irNTH3nW65rN/skigg67Tq3H2IawbT
fvc8iY3LsbWUUfrT91JWItajWAoqvkBT4PZHW9zsZNIGYtv6Ez8Tv2efTFlj6+pC
LiibJM1u9SCvg8S2KAmUmZjo1dRwatAEtkwlRXECeQ2kFJ4sXW7fFzOFAavsG69D
HaffFW9/Or2XvwbN/+tuNVKQ5+jqsY/Qrx3qlLp7ZU1yDQ==
-----END CERTIFICATE-----
