Certificate:
    Data:
        Version: 3 (0x2)
        Serial Number: 13 (0xd)
        Signature Algorithm: sha1WithRSAEncryption
        Issuer: C=US, O=Nobody Really Looks At This Anyway Inc., CN=Demo Certificate Authority
        Validity
            Not Before: Jul 27 00:33:42 2010 GMT
            Not After : Apr 22 00:33:42 2013 GMT
        Subject: CN=*.112.2o7.net
        Subject Public Key Info:
            Public Key Algorithm: rsaEncryption
            RSA Public Key: (2048 bit)
                Modulus (2048 bit):
                    00:c0:53:c0:e5:fb:84:45:1b:67:b7:a1:aa:a4:37:
                    6e:7a:78:ec:d6:e4:e2:3f:ab:f5:fc:7a:36:b1:71:
                    b1:72:0a:4d:d7:60:4e:6b:36:ad:99:3b:8d:ab:84:
                    f5:24:3e:0b:62:04:3c:ba:f2:0a:33:b3:b5:1a:b4:
                    a6:51:d2:a2:1a:bf:86:ff:9b:75:97:8b:0d:38:e7:
                    fe:a5:38:d2:ab:5b:bc:48:96:0c:be:3e:ac:d2:17:
                    19:04:19:4b:11:2f:b3:97:11:cd:4f:83:b8:08:67:
                    3c:8f:90:0f:66:db:bd:30:1e:9f:a6:5c:81:f2:4b:
                    fb:93:6b:63:f7:bc:57:ca:a0:ff:e8:04:ba:14:a2:
                    6c:8d:d1:88:ca:df:14:64:b5:61:4f:90:d9:88:3c:
                    c2:f5:bb:03:e3:6f:5c:12:2e:af:64:71:15:c0:29:
                    71:d1:bf:93:20:5e:ff:17:c7:8e:f9:0c:96:e7:04:
                    64:a3:55:34:d4:48:4f:f3:d3:15:d3:c4:0f:3c:5c:
                    55:a7:ea:6b:65:21:d3:5d:e9:ee:e8:37:00:d2:0d:
                    13:db:5e:40:e8:7d:c4:86:db:aa:7e:ee:6f:d8:a7:
                    d2:f5:8d:ad:e1:c4:19:39:18:4f:e5:92:16:19:14:
                    2d:a6:84:ad:0a:69:ae:40:fa:3f:40:63:b5:83:02:
                    92:65
                Exponent: 65537 (0x10001)
        X509v3 extensions:
            X509v3 Key Usage: critical
                Digital Signature, Non Repudiation, Key Encipherment, Data Encipherment
            X509v3 Subject Key Identifier: 
                7F:F6:B8:26:2E:56:02:0E:6D:B7:83:8F:77:08:E6:2B:6D:8C:C0:12
            X509v3 Authority Key Identifier: 
                keyid:84:39:A5:38:E7:82:EF:D2:26:B9:34:2B:2E:F7:25:62:AD:79:BF:DE

            X509v3 Extended Key Usage: 
                TLS Web Server Authentication, TLS Web Client Authentication
            X509v3 Basic Constraints: critical
                CA:FALSE
    Signature Algorithm: sha1WithRSAEncryption
        00:68:ca:eb:26:7f:91:38:ff:b8:5a:f7:2e:50:62:9f:59:06:
        2f:bf:af:b1:6c:c2:65:97:47:be:6e:ae:73:fe:d6:1a:8d:76:
        8f:c6:52:82:06:b6:d3:55:40:a5:d7:03:b1:46:39:d8:4e:36:
        c5:7a:fc:0d:7a:56:68:4c:5e:f3:98:f8:ac:bd:90:7d:47:75:
        99:cf:14:a0:d5:1e:b0:55:03:ea:76:39:2c:df:c5:8c:74:64:
        65:55:6d:c6:bf:c7:53:e0:1b:5c:7e:8c:08:77:d9:3f:2e:1c:
        a0:e6:25:2b:f9:af:a7:ce:43:aa:0a:f3:e6:c5:2f:e2:4d:b5:
        f6:15:35:28:ed:c5:33:82:09:8b:1c:55:db:ea:c5:b8:b0:99:
        31:1c:e9:c9:ae:81:a9:55:52:4c:a0:23:ac:60:d1:85:72:5a:
        ae:29:61:ce:02:22:b8:5e:3f:02:5b:26:64:76:b1:a7:23:61:
        d5:d6:b4:f0:01:06:df:27:12:17:e3:5a:a4:12:cd:16:45:e6:
        21:23:a7:91:f5:bd:6f:87:a0:45:17:cd:ac:aa:33:ac:c5:09:
        0b:6c:59:d0:54:74:cb:bc:7b:ec:be:9e:f9:01:a4:27:69:54:
        d9:ae:49:0f:d4:a0:cb:fd:1a:9c:53:2a:0f:39:77:83:ac:31:
        43:ec:c3:eb
-----BEGIN CERTIFICATE-----
MIIDdjCCAl6gAwIBAgIBDTANBgkqhkiG9w0BAQUFADBkMQswCQYDVQQGEwJVUzEw
MC4GA1UEChMnTm9ib2R5IFJlYWxseSBMb29rcyBBdCBUaGlzIEFueXdheSBJbmMu
MSMwIQYDVQQDExpEZW1vIENlcnRpZmljYXRlIEF1dGhvcml0eTAeFw0xMDA3Mjcw
MDMzNDJaFw0xMzA0MjIwMDMzNDJaMBgxFjAUBgNVBAMUDSouMTEyLjJvNy5uZXQw
ggEiMA0GCSqGSIb3DQEBAQUAA4IBDwAwggEKAoIBAQDAU8Dl+4RFG2e3oaqkN256
eOzW5OI/q/X8ejaxcbFyCk3XYE5rNq2ZO42rhPUkPgtiBDy68gozs7UatKZR0qIa
v4b/m3WXiw045/6lONKrW7xIlgy+PqzSFxkEGUsRL7OXEc1Pg7gIZzyPkA9m270w
Hp+mXIHyS/uTa2P3vFfKoP/oBLoUomyN0YjK3xRktWFPkNmIPML1uwPjb1wSLq9k
cRXAKXHRv5MgXv8Xx475DJbnBGSjVTTUSE/z0xXTxA88XFWn6mtlIdNd6e7oNwDS
DRPbXkDofcSG26p+7m/Yp9L1ja3hxBk5GE/lkhYZFC2mhK0Kaa5A+j9AY7WDApJl
AgMBAAGjfzB9MA4GA1UdDwEB/wQEAwIE8DAdBgNVHQ4EFgQUf/a4Ji5WAg5tt4OP
dwjmK22MwBIwHwYDVR0jBBgwFoAUhDmlOOeC79ImuTQrLvclYq15v94wHQYDVR0l
BBYwFAYIKwYBBQUHAwEGCCsGAQUFBwMCMAwGA1UdEwEB/wQCMAAwDQYJKoZIhvcN
AQEFBQADggEBAABoyusmf5E4/7ha9y5QYp9ZBi+/r7FswmWXR75urnP+1hqNdo/G
UoIGttNVQKXXA7FGOdhONsV6/A16VmhMXvOY+Ky9kH1HdZnPFKDVHrBVA+p2OSzf
xYx0ZGVVbca/x1PgG1x+jAh32T8uHKDmJSv5r6fOQ6oK8+bFL+JNtfYVNSjtxTOC
CYscVdvqxbiwmTEc6cmugalVUkygI6xg0YVyWq4pYc4CIrhePwJbJmR2sacjYdXW
tPABBt8nEhfjWqQSzRZF5iEjp5H1vW+HoEUXzayqM6zFCQtsWdBUdMu8e+y+nvkB
pCdpVNmuSQ/UoMv9GpxTKg85d4OsMUPsw+s=
-----END CERTIFICATE-----
