Certificate:
    Data:
        Version: 3 (0x2)
        Serial Number: 14 (0xe)
        Signature Algorithm: sha1WithRSAEncryption
        Issuer: C=US, O=Nobody Really Looks At This Anyway Inc., CN=Demo Certificate Authority
        Validity
            Not Before: Jul 27 00:34:16 2010 GMT
            Not After : Apr 22 00:34:16 2013 GMT
        Subject: CN=securepics.ebaystatic.com
        Subject Public Key Info:
            Public Key Algorithm: rsaEncryption
            RSA Public Key: (2048 bit)
                Modulus (2048 bit):
                    00:c6:0e:19:81:08:58:5f:cd:8b:94:5e:c1:48:27:
                    8e:ce:40:2e:43:8b:82:37:f4:a0:e0:91:0a:31:83:
                    17:88:c2:9e:3b:a7:de:e7:d8:bd:c4:cd:61:a5:16:
                    61:07:a2:39:2d:5d:0a:8d:4d:29:4a:85:85:a7:c1:
                    81:3b:54:81:c5:34:87:f4:94:c7:45:dc:00:32:30:
                    50:3a:0b:e1:c9:82:fb:bb:73:6d:45:42:11:b9:3e:
                    8b:bb:94:98:d8:1d:8a:2b:fe:c4:53:54:8f:0f:99:
                    ea:1f:8c:c7:58:dd:3d:71:57:c9:b9:a5:33:e3:65:
                    8b:d7:6b:28:3c:4f:85:de:0b:9e:17:49:7d:cd:e5:
                    f9:d5:16:63:58:d5:ad:2f:85:6b:48:0f:7f:15:27:
                    9b:9b:8c:b6:4d:8b:0f:8d:b0:1f:93:64:4b:31:6d:
                    2a:69:d3:9b:12:f1:2d:7c:7f:31:bf:45:59:ea:f9:
                    74:a5:ee:35:20:f2:ec:b4:4c:23:75:49:67:5d:86:
                    b5:61:10:06:9b:0b:55:32:52:15:5a:64:75:40:aa:
                    3b:61:5b:93:46:b7:74:cb:b9:e6:55:08:2d:df:df:
                    4b:d7:e1:b6:4d:29:f7:d5:4b:0f:b9:53:d8:87:a5:
                    23:00:54:6a:b6:4d:ba:8c:27:39:0f:7f:8c:47:c1:
                    55:8d
                Exponent: 65537 (0x10001)
        X509v3 extensions:
            X509v3 Key Usage: critical
                Digital Signature, Non Repudiation, Key Encipherment, Data Encipherment
            X509v3 Subject Key Identifier: 
                C8:0D:06:AE:62:49:7B:FF:AA:16:D6:5C:D3:C9:3A:06:1E:66:6D:DE
            X509v3 Authority Key Identifier: 
                keyid:84:39:A5:38:E7:82:EF:D2:26:B9:34:2B:2E:F7:25:62:AD:79:BF:DE

            X509v3 Extended Key Usage: 
                TLS Web Server Authentication, TLS Web Client Authentication
            X509v3 Basic Constraints: critical
                CA:FALSE
    Signature Algorithm: sha1WithRSAEncryption
        af:12:d4:f1:60:94:fe:bd:c9:6c:82:81:c5:d5:4b:38:de:72:
        b2:cf:3b:7a:3e:81:ea:26:b8:04:cf:7d:7a:b3:44:a2:ca:3e:
        b2:dd:6e:50:f4:05:df:7d:f9:34:f1:c9:69:89:5c:f5:6b:4a:
        31:f6:5a:e7:25:02:4e:51:77:9e:1d:b5:73:c8:82:df:ce:12:
        91:1a:2e:5a:1f:8a:7c:6b:05:00:3e:bc:2f:09:91:35:db:2a:
        e3:f3:1d:b8:d1:31:e9:7f:e9:d2:68:08:ee:de:90:a3:5b:ec:
        54:8b:74:f0:13:af:1b:84:0d:11:be:5f:ae:81:b9:df:2a:38:
        c0:e1:c5:fd:92:a0:79:ae:c5:cf:77:75:2a:96:82:12:06:20:
        d9:c6:c2:4a:d0:7c:35:eb:75:de:39:1d:41:8a:0a:1a:9a:8e:
        b5:48:88:d3:33:c9:a2:ea:62:e2:dc:fd:82:5f:d2:f4:f0:e7:
        9b:2b:56:39:fa:82:20:fb:9e:68:7a:6e:2b:47:10:c8:21:59:
        28:ab:df:88:f2:e0:63:ef:41:c9:0e:14:c5:39:ba:6b:4c:68:
        56:10:95:ba:7c:4d:41:39:04:ad:fb:b2:d0:0d:7c:ae:6b:f1:
        60:ca:59:5a:83:78:b2:c7:3d:c6:46:49:89:ff:94:88:23:3f:
        0f:a9:a0:b2
-----BEGIN CERTIFICATE-----
MIIDgjCCAmqgAwIBAgIBDjANBgkqhkiG9w0BAQUFADBkMQswCQYDVQQGEwJVUzEw
MC4GA1UEChMnTm9ib2R5IFJlYWxseSBMb29rcyBBdCBUaGlzIEFueXdheSBJbmMu
MSMwIQYDVQQDExpEZW1vIENlcnRpZmljYXRlIEF1dGhvcml0eTAeFw0xMDA3Mjcw
MDM0MTZaFw0xMzA0MjIwMDM0MTZaMCQxIjAgBgNVBAMTGXNlY3VyZXBpY3MuZWJh
eXN0YXRpYy5jb20wggEiMA0GCSqGSIb3DQEBAQUAA4IBDwAwggEKAoIBAQDGDhmB
CFhfzYuUXsFIJ47OQC5Di4I39KDgkQoxgxeIwp47p97n2L3EzWGlFmEHojktXQqN
TSlKhYWnwYE7VIHFNIf0lMdF3AAyMFA6C+HJgvu7c21FQhG5Pou7lJjYHYor/sRT
VI8PmeofjMdY3T1xV8m5pTPjZYvXayg8T4XeC54XSX3N5fnVFmNY1a0vhWtID38V
J5ubjLZNiw+NsB+TZEsxbSpp05sS8S18fzG/RVnq+XSl7jUg8uy0TCN1SWddhrVh
EAabC1UyUhVaZHVAqjthW5NGt3TLueZVCC3f30vX4bZNKffVSw+5U9iHpSMAVGq2
TbqMJzkPf4xHwVWNAgMBAAGjfzB9MA4GA1UdDwEB/wQEAwIE8DAdBgNVHQ4EFgQU
yA0GrmJJe/+qFtZc08k6Bh5mbd4wHwYDVR0jBBgwFoAUhDmlOOeC79ImuTQrLvcl
Yq15v94wHQYDVR0lBBYwFAYIKwYBBQUHAwEGCCsGAQUFBwMCMAwGA1UdEwEB/wQC
MAAwDQYJKoZIhvcNAQEFBQADggEBAK8S1PFglP69yWyCgcXVSzjecrLPO3o+geom
uATPfXqzRKLKPrLdblD0Bd99+TTxyWmJXPVrSjH2WuclAk5Rd54dtXPIgt/OEpEa
LlofinxrBQA+vC8JkTXbKuPzHbjRMel/6dJoCO7ekKNb7FSLdPATrxuEDRG+X66B
ud8qOMDhxf2SoHmuxc93dSqWghIGINnGwkrQfDXrdd45HUGKChqajrVIiNMzyaLq
YuLc/YJf0vTw55srVjn6giD7nmh6bitHEMghWSir34jy4GPvQckOFMU5umtMaFYQ
lbp8TUE5BK37stANfK5r8WDKWVqDeLLHPcZGSYn/lIgjPw+poLI=
-----END CERTIFICATE-----
