Certificate:
    Data:
        Version: 3 (0x2)
        Serial Number: 15 (0xf)
        Signature Algorithm: sha1WithRSAEncryption
        Issuer: C=US, O=Nobody Really Looks At This Anyway Inc., CN=Demo Certificate Authority
        Validity
            Not Before: Jul 28 01:54:54 2010 GMT
            Not After : Apr 23 01:54:54 2013 GMT
        Subject: CN=webtrends.chase.com
        Subject Public Key Info:
            Public Key Algorithm: rsaEncryption
            RSA Public Key: (2048 bit)
                Modulus (2048 bit):
                    00:c9:59:fe:90:87:60:86:0b:61:e0:85:48:66:7e:
                    0d:88:4b:ed:31:be:43:d2:3b:da:15:a0:db:cc:c3:
                    ac:f5:f9:df:ae:6d:d8:26:5b:14:1b:f5:0e:3c:d8:
                    78:38:27:7b:c3:70:b5:d6:5a:37:a0:a8:f5:d9:47:
                    63:9a:e7:cb:93:d3:6b:b1:ee:28:aa:12:c2:d2:fc:
                    7c:f1:91:d0:05:52:8d:fd:b7:85:6f:79:58:4b:ca:
                    d0:1b:2c:c2:e2:f8:1f:bb:97:fb:06:ed:6b:67:64:
                    ad:87:25:fa:ea:98:89:7f:34:be:35:1f:80:25:32:
                    b6:2f:a4:8d:bb:04:48:ac:69:f7:95:ba:cd:56:a0:
                    d9:e4:41:ad:e3:71:46:77:07:28:a6:e9:ad:cb:c9:
                    2c:8e:17:fd:3f:3a:b9:f9:43:e4:d2:9b:c7:c1:29:
                    fc:08:7c:b6:3a:b0:6c:2b:89:49:30:e5:d7:90:12:
                    af:8c:23:7d:28:eb:f1:1a:e2:fc:e2:c3:97:3e:1d:
                    a3:c2:74:e9:e7:76:ff:b2:4a:ee:79:d1:94:5a:9e:
                    8c:16:1d:3f:a0:52:91:c7:22:17:a6:2f:6d:19:75:
                    47:de:c7:89:a6:0c:a5:60:f8:1c:ee:d3:d0:9c:45:
                    79:f6:6d:ed:4d:46:f4:d4:c5:f8:c0:4e:09:37:34:
                    8f:a3
                Exponent: 65537 (0x10001)
        X509v3 extensions:
            X509v3 Key Usage: critical
                Digital Signature, Non Repudiation, Key Encipherment, Data Encipherment
            X509v3 Subject Key Identifier: 
                30:A8:9F:C5:05:36:25:D7:B5:61:57:64:F0:79:9E:11:C3:E2:C9:17
            X509v3 Authority Key Identifier: 
                keyid:84:39:A5:38:E7:82:EF:D2:26:B9:34:2B:2E:F7:25:62:AD:79:BF:DE

            X509v3 Extended Key Usage: 
                TLS Web Server Authentication, TLS Web Client Authentication
            X509v3 Basic Constraints: critical
                CA:FALSE
    Signature Algorithm: sha1WithRSAEncryption
        3f:ac:aa:7b:7b:61:dd:b3:a5:b7:1e:9e:54:86:26:a8:4f:26:
        95:43:84:f1:d3:f2:6b:0e:22:96:51:35:ac:9b:0a:a2:10:73:
        66:fa:c6:7e:e0:37:c0:87:d6:a7:52:85:2b:2b:60:93:f9:c0:
        8c:04:59:00:47:f5:20:3e:87:60:22:5f:77:f9:d0:7d:c3:78:
        27:96:20:ec:7c:5d:c4:56:b2:55:de:06:a4:3b:6f:60:1b:d7:
        1a:5c:4e:e5:6f:61:95:b4:1c:e7:85:3f:41:32:04:aa:91:d0:
        a2:10:87:4b:3c:9c:bd:c8:52:e2:21:cc:01:2a:88:d0:9b:a5:
        72:5c:f4:e1:42:1e:a6:a4:d6:f4:7f:a3:f3:22:49:f8:d0:6c:
        d2:e5:be:72:bd:2a:2b:85:b0:6f:3c:4a:15:68:40:bf:fe:2f:
        40:48:0d:ee:84:b1:c9:c4:2a:d1:81:d4:66:e6:68:a8:2c:62:
        c5:2b:b0:3f:d1:b4:d8:98:a6:4f:7d:0a:f0:83:02:08:0e:14:
        a8:90:e1:8f:a3:e2:13:9f:80:6e:3f:74:a6:df:d1:21:b9:c9:
        1c:fa:2a:3f:cd:bd:e9:a0:28:16:7f:92:bf:96:53:a2:9d:b7:
        ea:10:4d:68:0c:c7:95:26:7b:86:10:10:fb:9f:81:0f:eb:6b:
        f7:65:e1:65
-----BEGIN CERTIFICATE-----
MIIDfDCCAmSgAwIBAgIBDzANBgkqhkiG9w0BAQUFADBkMQswCQYDVQQGEwJVUzEw
MC4GA1UEChMnTm9ib2R5IFJlYWxseSBMb29rcyBBdCBUaGlzIEFueXdheSBJbmMu
MSMwIQYDVQQDExpEZW1vIENlcnRpZmljYXRlIEF1dGhvcml0eTAeFw0xMDA3Mjgw
MTU0NTRaFw0xMzA0MjMwMTU0NTRaMB4xHDAaBgNVBAMTE3dlYnRyZW5kcy5jaGFz
ZS5jb20wggEiMA0GCSqGSIb3DQEBAQUAA4IBDwAwggEKAoIBAQDJWf6Qh2CGC2Hg
hUhmfg2IS+0xvkPSO9oVoNvMw6z1+d+ubdgmWxQb9Q482Hg4J3vDcLXWWjegqPXZ
R2Oa58uT02ux7iiqEsLS/HzxkdAFUo39t4VveVhLytAbLMLi+B+7l/sG7WtnZK2H
JfrqmIl/NL41H4AlMrYvpI27BEisafeVus1WoNnkQa3jcUZ3Byim6a3LySyOF/0/
Orn5Q+TSm8fBKfwIfLY6sGwriUkw5deQEq+MI30o6/Ea4vziw5c+HaPCdOnndv+y
Su550ZRanowWHT+gUpHHIhemL20ZdUfex4mmDKVg+Bzu09CcRXn2be1NRvTUxfjA
Tgk3NI+jAgMBAAGjfzB9MA4GA1UdDwEB/wQEAwIE8DAdBgNVHQ4EFgQUMKifxQU2
Jde1YVdk8HmeEcPiyRcwHwYDVR0jBBgwFoAUhDmlOOeC79ImuTQrLvclYq15v94w
HQYDVR0lBBYwFAYIKwYBBQUHAwEGCCsGAQUFBwMCMAwGA1UdEwEB/wQCMAAwDQYJ
KoZIhvcNAQEFBQADggEBAD+sqnt7Yd2zpbcenlSGJqhPJpVDhPHT8msOIpZRNayb
CqIQc2b6xn7gN8CH1qdShSsrYJP5wIwEWQBH9SA+h2AiX3f50H3DeCeWIOx8XcRW
slXeBqQ7b2Ab1xpcTuVvYZW0HOeFP0EyBKqR0KIQh0s8nL3IUuIhzAEqiNCbpXJc
9OFCHqak1vR/o/MiSfjQbNLlvnK9KiuFsG88ShVoQL/+L0BIDe6EscnEKtGB1Gbm
aKgsYsUrsD/RtNiYpk99CvCDAggOFKiQ4Y+j4hOfgG4/dKbf0SG5yRz6Kj/Nvemg
KBZ/kr+WU6Kdt+oQTWgMx5Ume4YQEPufgQ/ra/dl4WU=
-----END CERTIFICATE-----
