Certificate:
    Data:
        Version: 3 (0x2)
        Serial Number: 16 (0x10)
        Signature Algorithm: sha1WithRSAEncryption
        Issuer: C=US, O=Nobody Really Looks At This Anyway Inc., CN=Demo Certificate Authority
        Validity
            Not Before: Jul 28 02:16:51 2010 GMT
            Not After : Apr 23 02:16:51 2013 GMT
        Subject: CN=*.mozilla.org
        Subject Public Key Info:
            Public Key Algorithm: rsaEncryption
            RSA Public Key: (2048 bit)
                Modulus (2048 bit):
                    00:bb:70:e5:03:c2:a0:58:a7:66:a2:6e:5f:53:2c:
                    27:c7:21:2b:1d:90:c3:c8:f9:79:7d:91:52:90:05:
                    0f:4b:2a:3e:59:11:7c:c5:6b:6b:7b:9e:ef:0f:40:
                    76:21:40:15:e6:11:84:a2:4c:e2:71:0c:af:f6:57:
                    6e:56:3d:9d:25:87:9c:ff:27:a5:4f:ee:2d:db:77:
                    c6:4b:26:d1:20:cf:39:7d:b3:1c:cd:44:1b:91:d9:
                    da:f5:2d:02:ab:5a:f6:8d:c5:40:ef:c7:cc:c3:99:
                    6b:97:5b:ee:04:14:bd:8a:a0:10:ff:34:45:1d:89:
                    21:6a:f8:6a:ef:da:6e:66:26:13:52:81:00:c5:a9:
                    ac:4b:8c:19:2c:b5:3c:0a:44:6d:26:9a:8f:88:73:
                    60:5d:1c:67:41:5f:c0:3c:6c:70:8e:e3:ed:d5:56:
                    42:8e:01:95:10:34:4f:80:11:d3:f5:ee:d5:9f:4d:
                    a2:05:f7:9d:2f:ef:fe:ce:e1:85:68:c8:f5:89:ef:
                    70:3f:56:fe:f6:5d:d6:f3:8c:19:40:ff:b4:2b:7f:
                    64:58:f9:77:74:a4:7f:42:55:6b:a8:b8:64:f8:d8:
                    bc:42:c8:51:e4:27:74:b8:e5:46:f0:c6:f7:35:bf:
                    03:dd:bf:04:d3:30:8c:77:57:50:f3:cd:42:a0:d9:
                    3f:1d
                Exponent: 65537 (0x10001)
        X509v3 extensions:
            X509v3 Key Usage: critical
                Digital Signature, Non Repudiation, Key Encipherment, Data Encipherment
            X509v3 Subject Key Identifier: 
                99:CC:83:94:36:8E:2D:E5:97:EE:53:1D:47:8B:43:8C:35:90:20:93
            X509v3 Authority Key Identifier: 
                keyid:84:39:A5:38:E7:82:EF:D2:26:B9:34:2B:2E:F7:25:62:AD:79:BF:DE

            X509v3 Extended Key Usage: 
                TLS Web Server Authentication, TLS Web Client Authentication
            X509v3 Basic Constraints: critical
                CA:FALSE
    Signature Algorithm: sha1WithRSAEncryption
        48:5d:05:3b:e1:b5:52:7e:ba:c8:3e:2c:18:5c:92:cd:e9:92:
        38:b2:3e:51:e5:57:37:46:ba:0d:9b:f6:77:74:17:e4:e8:b9:
        98:17:46:4c:9f:10:eb:f1:8b:97:42:fc:f7:60:8b:b5:34:00:
        a0:26:ab:04:b0:0f:57:29:b5:91:8f:9e:b3:dc:91:21:fe:c5:
        96:ed:85:0b:1a:d5:79:2a:99:cb:3c:32:c7:71:dd:1e:b6:5e:
        78:91:c0:50:64:bc:55:12:be:76:54:cc:1e:e1:57:10:7a:de:
        01:91:88:f5:32:4b:11:f0:3a:18:68:5d:69:d6:3a:f3:7f:34:
        44:44:f5:b7:d2:18:4d:4a:50:3c:05:86:3a:d8:40:c9:20:7c:
        e0:3b:bf:d5:52:da:ae:48:27:6f:6a:04:a8:55:5e:2a:f3:e5:
        51:3c:ab:11:09:66:e9:07:68:c9:85:ac:d7:17:cc:68:b6:d9:
        a0:4a:2d:fd:ff:7b:3c:17:69:c8:74:7c:7f:38:b4:8b:4b:31:
        02:53:1a:55:c8:45:b9:5b:bd:cc:ae:b7:09:48:ff:e5:7a:91:
        54:57:1b:d9:ca:9d:f7:8b:6b:2d:90:37:4a:a4:09:c3:91:a7:
        d0:e9:b7:53:db:2a:bc:d8:9c:89:73:ba:46:64:64:4a:f8:81:
        8d:4a:81:1f
-----BEGIN CERTIFICATE-----
MIIDdjCCAl6gAwIBAgIBEDANBgkqhkiG9w0BAQUFADBkMQswCQYDVQQGEwJVUzEw
MC4GA1UEChMnTm9ib2R5IFJlYWxseSBMb29rcyBBdCBUaGlzIEFueXdheSBJbmMu
MSMwIQYDVQQDExpEZW1vIENlcnRpZmljYXRlIEF1dGhvcml0eTAeFw0xMDA3Mjgw
MjE2NTFaFw0xMzA0MjMwMjE2NTFaMBgxFjAUBgNVBAMUDSoubW96aWxsYS5vcmcw
ggEiMA0GCSqGSIb3DQEBAQUAA4IBDwAwggEKAoIBAQC7cOUDwqBYp2aibl9TLCfH
ISsdkMPI+Xl9kVKQBQ9LKj5ZEXzFa2t7nu8PQHYhQBXmEYSiTOJxDK/2V25WPZ0l
h5z/J6VP7i3bd8ZLJtEgzzl9sxzNRBuR2dr1LQKrWvaNxUDvx8zDmWuXW+4EFL2K
oBD/NEUdiSFq+Grv2m5mJhNSgQDFqaxLjBkstTwKRG0mmo+Ic2BdHGdBX8A8bHCO
4+3VVkKOAZUQNE+AEdP17tWfTaIF950v7/7O4YVoyPWJ73A/Vv72XdbzjBlA/7Qr
f2RY+Xd0pH9CVWuouGT42LxCyFHkJ3S45Ubwxvc1vwPdvwTTMIx3V1DzzUKg2T8d
AgMBAAGjfzB9MA4GA1UdDwEB/wQEAwIE8DAdBgNVHQ4EFgQUmcyDlDaOLeWX7lMd
R4tDjDWQIJMwHwYDVR0jBBgwFoAUhDmlOOeC79ImuTQrLvclYq15v94wHQYDVR0l
BBYwFAYIKwYBBQUHAwEGCCsGAQUFBwMCMAwGA1UdEwEB/wQCMAAwDQYJKoZIhvcN
AQEFBQADggEBAEhdBTvhtVJ+usg+LBhcks3pkjiyPlHlVzdGug2b9nd0F+TouZgX
RkyfEOvxi5dC/Pdgi7U0AKAmqwSwD1cptZGPnrPckSH+xZbthQsa1Xkqmcs8Msdx
3R62XniRwFBkvFUSvnZUzB7hVxB63gGRiPUySxHwOhhoXWnWOvN/NERE9bfSGE1K
UDwFhjrYQMkgfOA7v9VS2q5IJ29qBKhVXirz5VE8qxEJZukHaMmFrNcXzGi22aBK
Lf3/ezwXach0fH84tItLMQJTGlXIRblbvcyutwlI/+V6kVRXG9nKnfeLay2QN0qk
CcORp9Dpt1PbKrzYnIlzukZkZEr4gY1KgR8=
-----END CERTIFICATE-----
