Certificate:
    Data:
        Version: 3 (0x2)
        Serial Number: 17 (0x11)
        Signature Algorithm: sha1WithRSAEncryption
        Issuer: C=US, O=Nobody Really Looks At This Anyway Inc., CN=Demo Certificate Authority
        Validity
            Not Before: Jul 28 02:16:52 2010 GMT
            Not After : Apr 23 02:16:52 2013 GMT
        Subject: CN=addons.mozilla.org
        Subject Public Key Info:
            Public Key Algorithm: rsaEncryption
            RSA Public Key: (2048 bit)
                Modulus (2048 bit):
                    00:c1:94:03:04:c2:a4:3b:90:28:99:59:1f:63:9c:
                    f9:ab:41:7e:68:54:8e:1c:39:34:65:e0:ac:87:57:
                    58:f2:78:f5:45:52:a0:35:c0:99:59:4a:1d:74:fa:
                    18:ca:fe:ff:b1:72:23:61:f7:f2:e7:2a:e8:9e:fd:
                    7c:65:5a:8c:2e:81:19:f7:65:58:aa:8f:70:08:a4:
                    94:39:ee:a7:d0:82:88:3c:46:d9:39:e5:00:e0:92:
                    cb:31:48:6f:f5:03:37:7b:5a:e2:ee:1e:78:4c:31:
                    4d:ae:85:bc:ec:3d:e0:74:89:e2:dc:44:39:8a:77:
                    cd:f0:1f:ba:01:26:42:c1:29:c2:40:84:a2:09:bc:
                    96:f7:05:c9:30:98:74:b1:c7:17:f3:91:ca:8a:44:
                    ef:e2:16:08:24:7b:83:83:2f:ce:86:d2:92:f4:2f:
                    0e:6f:fe:01:a6:28:f9:1a:c9:44:6d:41:b1:cf:02:
                    77:f1:27:cc:87:2c:2b:56:03:60:51:0f:cc:58:50:
                    76:8d:ac:4d:3a:c7:6e:78:1c:3e:06:31:25:07:9b:
                    dc:95:f0:35:70:66:55:b4:d0:53:92:f3:1c:df:8d:
                    5d:d5:6f:ce:1d:97:f8:18:7c:1b:92:63:8e:51:64:
                    41:8b:54:06:b6:27:d6:c0:44:67:e5:3f:70:44:e1:
                    a5:93
                Exponent: 65537 (0x10001)
        X509v3 extensions:
            X509v3 Key Usage: critical
                Digital Signature, Non Repudiation, Key Encipherment, Data Encipherment
            X509v3 Subject Key Identifier: 
                27:D1:DA:68:F3:67:CD:59:59:4D:D4:45:57:26:3E:D8:7A:A4:82:63
            X509v3 Authority Key Identifier: 
                keyid:84:39:A5:38:E7:82:EF:D2:26:B9:34:2B:2E:F7:25:62:AD:79:BF:DE

            X509v3 Extended Key Usage: 
                TLS Web Server Authentication, TLS Web Client Authentication
            X509v3 Basic Constraints: critical
                CA:FALSE
    Signature Algorithm: sha1WithRSAEncryption
        6b:3b:ee:b6:f5:bb:f8:f7:bd:9f:97:c8:f7:0a:c2:b6:00:61:
        f7:83:31:b4:ba:49:5f:16:8c:ea:aa:e0:af:ba:ad:d8:2e:3b:
        a2:f5:bb:98:b0:ad:78:c1:44:6b:59:38:e7:56:76:53:1e:d1:
        cc:0e:03:fd:ba:f3:df:c5:54:52:68:eb:dc:ce:3c:9e:59:5c:
        e5:6c:ba:a9:68:36:5e:31:c1:b9:57:b9:cc:4e:3b:54:e1:e0:
        e2:69:91:cd:23:91:ae:fd:3d:fd:8c:b8:2d:60:89:9d:86:e9:
        91:86:ae:dc:38:ef:07:21:0a:00:e0:9c:64:ca:d4:30:95:f6:
        68:5e:e7:17:74:4e:e7:d8:37:45:92:ec:25:4e:0b:0b:c7:9c:
        a6:d8:dc:bb:6c:33:f4:fa:aa:69:86:70:37:46:6a:4b:41:f2:
        86:7a:8b:72:59:9f:ab:63:f4:ed:61:3f:e9:77:8a:37:82:a9:
        49:ff:cd:dd:b4:2d:40:76:c8:6d:cc:62:42:7c:58:2e:23:20:
        e8:68:bf:c0:63:b8:5a:1f:ef:87:f6:d1:4b:a3:e7:48:37:13:
        31:4a:84:ec:6f:f2:20:86:e3:58:34:ec:c8:64:fc:c7:86:b1:
        89:ff:d3:2f:f9:85:11:1f:c7:3b:34:b1:75:63:82:8d:de:e2:
        19:a9:b2:d3
-----BEGIN CERTIFICATE-----
MIIDezCCAmOgAwIBAgIBETANBgkqhkiG9w0BAQUFADBkMQswCQYDVQQGEwJVUzEw
MC4GA1UEChMnTm9ib2R5IFJlYWxseSBMb29rcyBBdCBUaGlzIEFueXdheSBJbmMu
MSMwIQYDVQQDExpEZW1vIENlcnRpZmljYXRlIEF1dGhvcml0eTAeFw0xMDA3Mjgw
MjE2NTJaFw0xMzA0MjMwMjE2NTJaMB0xGzAZBgNVBAMTEmFkZG9ucy5tb3ppbGxh
Lm9yZzCCASIwDQYJKoZIhvcNAQEBBQADggEPADCCAQoCggEBAMGUAwTCpDuQKJlZ
H2Oc+atBfmhUjhw5NGXgrIdXWPJ49UVSoDXAmVlKHXT6GMr+/7FyI2H38ucq6J79
fGVajC6BGfdlWKqPcAiklDnup9CCiDxG2TnlAOCSyzFIb/UDN3ta4u4eeEwxTa6F
vOw94HSJ4txEOYp3zfAfugEmQsEpwkCEogm8lvcFyTCYdLHHF/ORyopE7+IWCCR7
g4MvzobSkvQvDm/+AaYo+RrJRG1Bsc8Cd/EnzIcsK1YDYFEPzFhQdo2sTTrHbngc
PgYxJQeb3JXwNXBmVbTQU5LzHN+NXdVvzh2X+Bh8G5JjjlFkQYtUBrYn1sBEZ+U/
cEThpZMCAwEAAaN/MH0wDgYDVR0PAQH/BAQDAgTwMB0GA1UdDgQWBBQn0dpo82fN
WVlN1EVXJj7YeqSCYzAfBgNVHSMEGDAWgBSEOaU454Lv0ia5NCsu9yVirXm/3jAd
BgNVHSUEFjAUBggrBgEFBQcDAQYIKwYBBQUHAwIwDAYDVR0TAQH/BAIwADANBgkq
hkiG9w0BAQUFAAOCAQEAazvutvW7+Pe9n5fI9wrCtgBh94MxtLpJXxaM6qrgr7qt
2C47ovW7mLCteMFEa1k451Z2Ux7RzA4D/brz38VUUmjr3M48nllc5Wy6qWg2XjHB
uVe5zE47VOHg4mmRzSORrv09/Yy4LWCJnYbpkYau3DjvByEKAOCcZMrUMJX2aF7n
F3RO59g3RZLsJU4LC8ecptjcu2wz9PqqaYZwN0ZqS0HyhnqLclmfq2P07WE/6XeK
N4KpSf/N3bQtQHbIbcxiQnxYLiMg6Gi/wGO4Wh/vh/bRS6PnSDcTMUqE7G/yIIbj
WDTsyGT8x4axif/TL/mFER/HOzSxdWOCjd7iGamy0w==
-----END CERTIFICATE-----
