Certificate:
    Data:
        Version: 3 (0x2)
        Serial Number: 18 (0x12)
        Signature Algorithm: sha1WithRSAEncryption
        Issuer: C=US, O=Nobody Really Looks At This Anyway Inc., CN=Demo Certificate Authority
        Validity
            Not Before: Jul 28 06:54:49 2010 GMT
            Not After : Apr 23 06:54:49 2013 GMT
        Subject: CN=*.google.com
        Subject Public Key Info:
            Public Key Algorithm: rsaEncryption
            RSA Public Key: (2048 bit)
                Modulus (2048 bit):
                    00:be:e5:4f:8d:c6:53:14:bb:c1:de:54:14:55:0d:
                    24:c8:56:c4:03:ee:00:50:00:6e:6a:21:62:c1:7b:
                    0c:26:59:0c:b7:99:38:00:7b:6d:00:d2:8d:a8:81:
                    85:0b:fe:6a:8f:8b:f0:81:ce:8b:8e:22:92:ad:b8:
                    8c:3b:50:f4:ef:83:74:97:3b:1c:24:bf:b5:46:06:
                    b7:29:23:12:01:a3:f0:57:c0:fc:e4:f5:00:28:f1:
                    8f:e9:2a:13:d2:30:55:b5:be:48:83:e8:de:a6:15:
                    e6:86:9e:5e:e5:ca:05:ce:91:ad:1b:23:4f:d0:9a:
                    31:df:68:f0:e6:a1:6d:24:e0:f3:7c:3e:4f:3e:4b:
                    b8:05:e8:0b:74:e0:f9:2e:d9:d8:c5:3a:c2:be:ba:
                    e0:c2:b2:4f:ea:37:9a:c6:97:14:cb:8f:00:57:02:
                    91:db:60:40:83:f0:b7:dc:5f:21:2e:bf:30:6b:00:
                    8e:9e:6b:f1:5b:0b:b7:f7:de:ba:5e:5b:61:9f:7d:
                    7b:4e:5c:9c:5e:b3:32:d2:e0:47:19:71:d2:98:bc:
                    fd:c9:44:a4:ea:f7:1d:00:41:da:1a:15:5f:66:1c:
                    61:c1:ab:79:92:8f:01:4a:4a:85:3b:9b:ec:ae:da:
                    ca:19:cd:ba:35:9b:85:a5:a5:c0:83:a6:fb:4b:38:
                    5e:1b
                Exponent: 65537 (0x10001)
        X509v3 extensions:
            X509v3 Key Usage: critical
                Digital Signature, Non Repudiation, Key Encipherment, Data Encipherment
            X509v3 Subject Key Identifier: 
                65:D3:59:47:28:B1:04:03:8C:BD:82:BC:85:81:EC:FD:F1:89:19:A5
            X509v3 Authority Key Identifier: 
                keyid:84:39:A5:38:E7:82:EF:D2:26:B9:34:2B:2E:F7:25:62:AD:79:BF:DE

            X509v3 Extended Key Usage: 
                TLS Web Server Authentication, TLS Web Client Authentication
            X509v3 Basic Constraints: critical
                CA:FALSE
    Signature Algorithm: sha1WithRSAEncryption
        19:8e:af:2e:b4:60:0d:da:57:5f:71:42:87:f9:52:a7:d0:0b:
        85:6d:15:b5:e7:0b:41:de:2e:43:08:dd:fa:f9:9a:14:bb:c7:
        bc:fa:18:5d:b9:bb:fd:73:ea:d1:d8:7f:22:64:07:23:36:88:
        89:b3:7e:33:79:72:74:41:9a:bc:fe:68:a8:ba:a4:c8:16:82:
        34:27:fc:55:4b:8d:40:34:01:59:02:1a:5b:c5:ab:26:9d:a9:
        6a:8d:cd:b0:50:88:b5:24:ec:46:64:ff:0e:65:a8:f3:cf:60:
        6e:2b:67:8e:c7:56:7b:80:37:ef:9d:14:e9:70:ed:cc:11:50:
        5d:7f:9a:1f:36:af:5f:c5:71:cc:88:ee:4b:62:39:0e:fd:1f:
        e3:ae:a4:0f:1d:e2:03:d9:44:d3:3e:9d:a6:a2:8a:6c:e4:22:
        bb:d1:79:54:b5:51:67:49:71:e8:c2:e0:76:2f:d3:44:01:24:
        fc:d9:50:0e:74:f0:89:8c:c3:80:6b:6e:ea:f9:f1:bf:76:ff:
        bd:42:ec:85:f6:4b:d9:28:b7:bd:22:18:32:da:20:d0:b0:bd:
        ee:02:49:cd:64:13:a9:1e:08:dd:76:09:b6:7d:10:4d:91:2a:
        3d:d5:16:b1:09:2d:53:ac:25:87:69:94:84:15:73:e1:84:fd:
        42:bf:d4:ea
-----BEGIN CERTIFICATE-----
MIIDdTCCAl2gAwIBAgIBEjANBgkqhkiG9w0BAQUFADBkMQswCQYDVQQGEwJVUzEw
MC4GA1UEChMnTm9ib2R5IFJlYWxseSBMb29rcyBBdCBUaGlzIEFueXdheSBJbmMu
MSMwIQYDVQQDExpEZW1vIENlcnRpZmljYXRlIEF1dGhvcml0eTAeFw0xMDA3Mjgw
NjU0NDlaFw0xMzA0MjMwNjU0NDlaMBcxFTATBgNVBAMUDCouZ29vZ2xlLmNvbTCC
ASIwDQYJKoZIhvcNAQEBBQADggEPADCCAQoCggEBAL7lT43GUxS7wd5UFFUNJMhW
xAPuAFAAbmohYsF7DCZZDLeZOAB7bQDSjaiBhQv+ao+L8IHOi44ikq24jDtQ9O+D
dJc7HCS/tUYGtykjEgGj8FfA/OT1ACjxj+kqE9IwVbW+SIPo3qYV5oaeXuXKBc6R
rRsjT9CaMd9o8OahbSTg83w+Tz5LuAXoC3Tg+S7Z2MU6wr664MKyT+o3msaXFMuP
AFcCkdtgQIPwt9xfIS6/MGsAjp5r8VsLt/feul5bYZ99e05cnF6zMtLgRxlx0pi8
/clEpOr3HQBB2hoVX2YcYcGreZKPAUpKhTub7K7ayhnNujWbhaWlwIOm+0s4XhsC
AwEAAaN/MH0wDgYDVR0PAQH/BAQDAgTwMB0GA1UdDgQWBBRl01lHKLEEA4y9gryF
gez98YkZpTAfBgNVHSMEGDAWgBSEOaU454Lv0ia5NCsu9yVirXm/3jAdBgNVHSUE
FjAUBggrBgEFBQcDAQYIKwYBBQUHAwIwDAYDVR0TAQH/BAIwADANBgkqhkiG9w0B
AQUFAAOCAQEAGY6vLrRgDdpXX3FCh/lSp9ALhW0VtecLQd4uQwjd+vmaFLvHvPoY
Xbm7/XPq0dh/ImQHIzaIibN+M3lydEGavP5oqLqkyBaCNCf8VUuNQDQBWQIaW8Wr
Jp2pao3NsFCItSTsRmT/DmWo889gbitnjsdWe4A3750U6XDtzBFQXX+aHzavX8Vx
zIjuS2I5Dv0f466kDx3iA9lE0z6dpqKKbOQiu9F5VLVRZ0lx6MLgdi/TRAEk/NlQ
DnTwiYzDgGtu6vnxv3b/vULshfZL2Si3vSIYMtog0LC97gJJzWQTqR4I3XYJtn0Q
TZEqPdUWsQktU6wlh2mUhBVz4YT9Qr/U6g==
-----END CERTIFICATE-----
