Certificate:
    Data:
        Version: 3 (0x2)
        Serial Number: 19 (0x13)
        Signature Algorithm: sha1WithRSAEncryption
        Issuer: C=US, O=Nobody Really Looks At This Anyway Inc., CN=Demo Certificate Authority
        Validity
            Not Before: Jul 28 06:55:15 2010 GMT
            Not After : Apr 23 06:55:15 2013 GMT
        Subject: CN=*.google.com
        Subject Public Key Info:
            Public Key Algorithm: rsaEncryption
            RSA Public Key: (2048 bit)
                Modulus (2048 bit):
                    00:ca:69:54:de:53:0b:10:5e:8f:2e:44:78:97:9e:
                    bf:d0:69:78:1d:25:d7:38:bc:cd:f2:3c:1b:04:d4:
                    f9:54:5e:cb:83:29:73:70:90:fb:55:9e:b5:1e:ec:
                    71:c3:a7:15:7a:74:bb:c9:42:f5:37:56:2a:fa:db:
                    8c:d6:47:86:89:7f:51:92:13:08:15:31:f5:7d:08:
                    f4:fe:82:4f:cf:78:a2:cf:57:50:18:70:78:8a:91:
                    f0:57:3b:6a:76:e3:1c:c5:4e:92:9e:bb:39:d2:64:
                    ae:7f:91:ca:5e:df:b6:0b:d3:7e:92:7e:6b:2a:58:
                    29:94:4b:1b:17:65:ef:79:0e:fa:6d:53:30:38:24:
                    9c:f2:dd:d0:22:3b:82:f8:05:0e:ea:80:31:ac:ad:
                    d4:4d:71:4b:d2:5e:ca:a5:46:c6:54:91:98:13:49:
                    f4:2b:ae:7c:e1:33:13:91:07:37:bc:77:7e:c6:d5:
                    eb:cc:3d:b5:2d:15:03:d0:93:e1:2e:e8:d2:e2:82:
                    84:94:e8:83:dc:e9:7e:e9:1a:5a:9b:f8:11:a1:f5:
                    7e:36:f0:a9:4d:7d:75:23:ff:be:63:1b:58:fd:9c:
                    ab:04:9d:84:e8:ab:82:41:e7:02:cd:9f:33:f8:8c:
                    4a:51:50:38:69:92:6d:81:be:38:4f:4f:a0:8c:eb:
                    fb:99
                Exponent: 65537 (0x10001)
        X509v3 extensions:
            X509v3 Key Usage: critical
                Digital Signature, Non Repudiation, Key Encipherment, Data Encipherment
            X509v3 Subject Key Identifier: 
                18:75:C0:4A:22:95:C3:8E:EF:BF:88:5E:D1:05:AB:87:D8:C1:D7:69
            X509v3 Authority Key Identifier: 
                keyid:84:39:A5:38:E7:82:EF:D2:26:B9:34:2B:2E:F7:25:62:AD:79:BF:DE

            X509v3 Extended Key Usage: 
                TLS Web Server Authentication, TLS Web Client Authentication
            X509v3 Basic Constraints: critical
                CA:FALSE
    Signature Algorithm: sha1WithRSAEncryption
        0c:55:0c:74:64:b2:c0:12:ee:72:7c:4e:f0:c1:c0:56:d5:82:
        36:52:f1:66:2d:91:bd:13:9e:ea:e1:94:4b:6b:78:68:ed:bb:
        e8:49:47:6f:00:d7:0d:0d:c3:2d:a0:53:d8:1e:63:9c:08:fb:
        b4:7d:5e:7d:ea:2b:d7:c3:47:47:02:9f:c7:02:65:50:f9:b8:
        47:1a:e0:a4:24:a8:51:49:41:d0:0f:3a:05:3f:3f:53:72:a8:
        dd:d3:70:73:79:17:00:95:1f:81:e3:dd:61:1f:26:2a:2b:7d:
        96:5c:69:c5:68:b6:bf:4c:c6:ac:a9:18:e1:ab:9e:82:08:52:
        2f:d2:a0:2a:c7:8b:b9:75:fd:f3:60:f6:00:c2:17:63:ae:f3:
        32:38:2f:f1:d9:c9:4f:30:e0:02:15:08:6c:c9:35:7f:48:f4:
        00:2a:03:5a:f8:07:d4:86:59:b5:39:9d:65:3b:0a:71:3d:27:
        90:4e:67:b1:8d:60:73:41:e0:88:6b:47:90:41:f0:12:2d:0c:
        fa:fa:70:07:0c:01:9e:05:39:b0:7b:11:fb:17:99:d0:a9:fb:
        e4:53:22:2e:7b:47:44:b6:9e:19:9d:bb:08:a4:0c:bf:e3:10:
        d4:08:51:75:67:87:2f:76:cb:35:e6:e5:b2:df:2d:81:dd:74:
        60:ae:38:b6
-----BEGIN CERTIFICATE-----
MIIDdTCCAl2gAwIBAgIBEzANBgkqhkiG9w0BAQUFADBkMQswCQYDVQQGEwJVUzEw
MC4GA1UEChMnTm9ib2R5IFJlYWxseSBMb29rcyBBdCBUaGlzIEFueXdheSBJbmMu
MSMwIQYDVQQDExpEZW1vIENlcnRpZmljYXRlIEF1dGhvcml0eTAeFw0xMDA3Mjgw
NjU1MTVaFw0xMzA0MjMwNjU1MTVaMBcxFTATBgNVBAMUDCouZ29vZ2xlLmNvbTCC
ASIwDQYJKoZIhvcNAQEBBQADggEPADCCAQoCggEBAMppVN5TCxBejy5EeJeev9Bp
eB0l1zi8zfI8GwTU+VRey4Mpc3CQ+1WetR7sccOnFXp0u8lC9TdWKvrbjNZHhol/
UZITCBUx9X0I9P6CT894os9XUBhweIqR8Fc7anbjHMVOkp67OdJkrn+Ryl7ftgvT
fpJ+aypYKZRLGxdl73kO+m1TMDgknPLd0CI7gvgFDuqAMayt1E1xS9JeyqVGxlSR
mBNJ9CuufOEzE5EHN7x3fsbV68w9tS0VA9CT4S7o0uKChJTog9zpfukaWpv4EaH1
fjbwqU19dSP/vmMbWP2cqwSdhOirgkHnAs2fM/iMSlFQOGmSbYG+OE9PoIzr+5kC
AwEAAaN/MH0wDgYDVR0PAQH/BAQDAgTwMB0GA1UdDgQWBBQYdcBKIpXDju+/iF7R
BauH2MHXaTAfBgNVHSMEGDAWgBSEOaU454Lv0ia5NCsu9yVirXm/3jAdBgNVHSUE
FjAUBggrBgEFBQcDAQYIKwYBBQUHAwIwDAYDVR0TAQH/BAIwADANBgkqhkiG9w0B
AQUFAAOCAQEADFUMdGSywBLucnxO8MHAVtWCNlLxZi2RvROe6uGUS2t4aO276ElH
bwDXDQ3DLaBT2B5jnAj7tH1efeor18NHRwKfxwJlUPm4RxrgpCSoUUlB0A86BT8/
U3Ko3dNwc3kXAJUfgePdYR8mKit9llxpxWi2v0zGrKkY4auegghSL9KgKseLuXX9
82D2AMIXY67zMjgv8dnJTzDgAhUIbMk1f0j0ACoDWvgH1IZZtTmdZTsKcT0nkE5n
sY1gc0HgiGtHkEHwEi0M+vpwBwwBngU5sHsR+xeZ0Kn75FMiLntHRLaeGZ27CKQM
v+MQ1AhRdWeHL3bLNeblst8tgd10YK44tg==
-----END CERTIFICATE-----
