Certificate:
    Data:
        Version: 3 (0x2)
        Serial Number: 20 (0x14)
        Signature Algorithm: sha1WithRSAEncryption
        Issuer: C=US, O=Nobody Really Looks At This Anyway Inc., CN=Demo Certificate Authority
        Validity
            Not Before: Jul 28 07:02:58 2010 GMT
            Not After : Apr 23 07:02:58 2013 GMT
        Subject: CN=www.capitalone.com
        Subject Public Key Info:
            Public Key Algorithm: rsaEncryption
            RSA Public Key: (2048 bit)
                Modulus (2048 bit):
                    00:c3:84:39:c6:86:15:f3:13:dd:cd:86:9b:66:4e:
                    ba:7f:8a:fc:ed:61:8f:85:26:47:e3:07:04:2c:10:
                    8a:c1:60:64:8e:e4:43:67:1a:f6:ad:44:2d:d9:10:
                    0f:99:31:43:fb:1b:49:a9:ba:b8:09:9b:37:4f:b8:
                    c3:42:96:91:65:21:9b:f6:d0:ab:4d:3f:17:9b:f5:
                    da:d4:af:c6:c2:ee:45:24:97:fe:20:0a:16:ac:cb:
                    2e:0f:4e:77:74:7b:5f:24:79:b2:9c:1e:94:0f:82:
                    05:34:bf:c2:05:01:f0:86:82:23:e5:07:98:ba:ab:
                    ab:fe:5f:9e:4f:cc:11:af:2a:c6:79:c0:7a:20:3f:
                    7b:3c:49:84:b2:25:ac:8a:78:5f:38:dc:94:cf:21:
                    88:2f:71:e8:b9:56:5c:8d:2c:50:11:15:df:cd:56:
                    97:92:9f:74:ff:43:60:8f:84:43:fc:1c:85:68:61:
                    5b:a6:b5:b7:ed:70:18:04:eb:c8:56:fd:3a:32:bc:
                    61:1d:74:63:ae:5e:bf:6d:6b:b0:16:3f:4a:6d:d8:
                    cc:8a:ca:69:4d:13:1e:51:dd:7d:ae:c3:be:57:b1:
                    4d:65:2b:15:6f:ef:cc:59:ad:52:92:ca:f6:b4:41:
                    66:3c:53:fb:fc:7e:04:ee:a3:b3:16:d7:8b:bb:26:
                    b6:5f
                Exponent: 65537 (0x10001)
        X509v3 extensions:
            X509v3 Key Usage: critical
                Digital Signature, Non Repudiation, Key Encipherment, Data Encipherment
            X509v3 Subject Key Identifier: 
                6D:95:E9:DB:45:08:36:9E:20:F2:98:40:A3:C6:B2:AF:E5:60:B5:45
            X509v3 Authority Key Identifier: 
                keyid:84:39:A5:38:E7:82:EF:D2:26:B9:34:2B:2E:F7:25:62:AD:79:BF:DE

            X509v3 Extended Key Usage: 
                TLS Web Server Authentication, TLS Web Client Authentication
            X509v3 Basic Constraints: critical
                CA:FALSE
    Signature Algorithm: sha1WithRSAEncryption
        8c:35:ec:78:49:c4:75:84:5b:52:8b:f1:55:5c:80:c5:d1:3c:
        0c:1d:85:2f:b1:36:63:28:a2:60:60:22:fd:39:82:90:d6:20:
        84:e1:65:f5:e8:0e:fc:37:23:d6:28:18:66:3f:a4:de:e6:14:
        6e:bf:f8:c2:a3:41:7d:c4:db:a4:17:f6:10:da:9c:5a:92:2c:
        ec:97:9a:63:61:e3:ae:e6:43:fd:a8:61:f2:1e:a7:26:97:81:
        59:95:75:ba:4f:7e:c2:00:73:16:70:d4:0a:67:19:a9:4d:ac:
        93:30:f7:b1:68:7b:f4:7f:00:b2:27:cf:62:7b:e5:47:f5:49:
        16:43:e0:16:5c:d9:9f:fc:93:93:00:28:5b:ac:b7:c4:45:39:
        93:67:72:4f:1b:d7:95:c5:a2:57:6f:88:6c:3d:ff:f6:86:4e:
        f4:6a:d0:69:58:45:8d:c1:b1:ea:94:6a:77:3c:14:74:6d:8f:
        8e:27:fe:49:9b:f6:fa:85:6d:3a:e8:c5:ad:08:6a:b9:3f:92:
        e2:84:88:d0:3a:a0:3c:c0:ee:67:c9:2f:86:5a:72:db:b7:23:
        05:c7:b6:fa:26:0f:17:09:fc:e7:60:38:3e:71:f8:84:95:8c:
        09:78:eb:f7:a6:60:0d:6e:cc:f4:77:f4:15:41:ed:b5:90:bf:
        a4:6f:a6:c0
-----BEGIN CERTIFICATE-----
MIIDezCCAmOgAwIBAgIBFDANBgkqhkiG9w0BAQUFADBkMQswCQYDVQQGEwJVUzEw
MC4GA1UEChMnTm9ib2R5IFJlYWxseSBMb29rcyBBdCBUaGlzIEFueXdheSBJbmMu
MSMwIQYDVQQDExpEZW1vIENlcnRpZmljYXRlIEF1dGhvcml0eTAeFw0xMDA3Mjgw
NzAyNThaFw0xMzA0MjMwNzAyNThaMB0xGzAZBgNVBAMTEnd3dy5jYXBpdGFsb25l
LmNvbTCCASIwDQYJKoZIhvcNAQEBBQADggEPADCCAQoCggEBAMOEOcaGFfMT3c2G
m2ZOun+K/O1hj4UmR+MHBCwQisFgZI7kQ2ca9q1ELdkQD5kxQ/sbSam6uAmbN0+4
w0KWkWUhm/bQq00/F5v12tSvxsLuRSSX/iAKFqzLLg9Od3R7XyR5spwelA+CBTS/
wgUB8IaCI+UHmLqrq/5fnk/MEa8qxnnAeiA/ezxJhLIlrIp4XzjclM8hiC9x6LlW
XI0sUBEV381Wl5KfdP9DYI+EQ/wchWhhW6a1t+1wGATryFb9OjK8YR10Y65ev21r
sBY/Sm3YzIrKaU0THlHdfa7DvlexTWUrFW/vzFmtUpLK9rRBZjxT+/x+BO6jsxbX
i7smtl8CAwEAAaN/MH0wDgYDVR0PAQH/BAQDAgTwMB0GA1UdDgQWBBRtlenbRQg2
niDymECjxrKv5WC1RTAfBgNVHSMEGDAWgBSEOaU454Lv0ia5NCsu9yVirXm/3jAd
BgNVHSUEFjAUBggrBgEFBQcDAQYIKwYBBQUHAwIwDAYDVR0TAQH/BAIwADANBgkq
hkiG9w0BAQUFAAOCAQEAjDXseEnEdYRbUovxVVyAxdE8DB2FL7E2YyiiYGAi/TmC
kNYghOFl9egO/Dcj1igYZj+k3uYUbr/4wqNBfcTbpBf2ENqcWpIs7JeaY2HjruZD
/ahh8h6nJpeBWZV1uk9+wgBzFnDUCmcZqU2skzD3sWh79H8AsifPYnvlR/VJFkPg
FlzZn/yTkwAoW6y3xEU5k2dyTxvXlcWiV2+IbD3/9oZO9GrQaVhFjcGx6pRqdzwU
dG2Pjif+SZv2+oVtOujFrQhquT+S4oSI0DqgPMDuZ8kvhlpy27cjBce2+iYPFwn8
52A4PnH4hJWMCXjr96ZgDW7M9Hf0FUHttZC/pG+mwA==
-----END CERTIFICATE-----
