Certificate:
    Data:
        Version: 3 (0x2)
        Serial Number: 21 (0x15)
        Signature Algorithm: sha1WithRSAEncryption
        Issuer: C=US, O=Nobody Really Looks At This Anyway Inc., CN=Demo Certificate Authority
        Validity
            Not Before: Jul 28 17:35:15 2010 GMT
            Not After : Apr 23 17:35:15 2013 GMT
        Subject: CN=*.google.com
        Subject Public Key Info:
            Public Key Algorithm: rsaEncryption
            RSA Public Key: (2048 bit)
                Modulus (2048 bit):
                    00:dc:e5:dd:99:61:4d:34:8f:fb:d2:e0:17:b2:8e:
                    b8:75:8f:ad:15:df:b4:51:77:c6:39:df:cf:56:99:
                    43:23:b6:32:04:0f:55:97:eb:af:ff:70:2a:cf:dd:
                    c3:74:48:b1:83:96:d9:00:65:4d:46:c3:f7:05:c9:
                    b5:45:12:fc:b8:4c:c1:4f:e8:e2:29:ed:85:fc:ae:
                    53:e5:a4:58:77:6c:61:ed:e6:70:73:fd:b4:7a:ef:
                    79:3b:d1:1c:75:cf:89:d8:79:18:f7:fe:aa:f2:69:
                    46:e3:61:69:c6:7c:36:b3:a5:fc:09:ce:f2:84:e3:
                    d0:1a:63:12:79:3a:ec:bf:4a:13:2d:00:a6:17:89:
                    c7:27:92:55:77:49:de:5b:ba:2a:e0:0d:92:87:ad:
                    c6:7d:bc:86:61:d3:65:03:6c:b6:08:50:ea:00:02:
                    18:cf:45:90:1a:00:39:1a:d5:c6:d8:7a:dc:da:7c:
                    30:45:83:0b:aa:ef:65:f5:e8:5e:c9:43:c8:f9:4e:
                    01:7b:25:1d:3c:e2:21:5e:11:54:23:57:ea:92:d1:
                    1a:6e:cf:6b:b8:b9:bf:c9:88:33:ae:38:c2:d1:92:
                    a8:68:63:4c:4c:d7:f7:e4:50:d9:4b:64:33:98:94:
                    07:32:97:2b:20:42:3b:62:a2:11:38:9b:29:68:bd:
                    89:a5
                Exponent: 65537 (0x10001)
        X509v3 extensions:
            X509v3 Key Usage: critical
                Digital Signature, Non Repudiation, Key Encipherment, Data Encipherment
            X509v3 Subject Key Identifier: 
                B8:38:C3:86:0A:F1:ED:3A:1D:E1:D0:D9:C1:38:AE:E1:F8:4F:D0:D5
            X509v3 Authority Key Identifier: 
                keyid:84:39:A5:38:E7:82:EF:D2:26:B9:34:2B:2E:F7:25:62:AD:79:BF:DE

            X509v3 Extended Key Usage: 
                TLS Web Server Authentication, TLS Web Client Authentication
            X509v3 Basic Constraints: critical
                CA:FALSE
    Signature Algorithm: sha1WithRSAEncryption
        99:47:54:55:8a:76:b6:5d:be:cf:2b:a5:f8:8c:d7:bb:b1:ea:
        c5:4c:39:34:c2:b3:15:8c:9f:9d:db:7c:ee:5a:79:63:a2:d9:
        c6:f7:13:b0:b4:a1:b7:05:e2:3a:5a:eb:2b:c6:21:34:70:b6:
        ef:ef:21:8a:23:cc:e2:1b:26:76:0f:4d:74:4e:c4:04:a0:31:
        33:c0:10:7a:3a:b8:23:37:c1:65:e7:38:a5:29:45:71:9b:92:
        88:15:0e:a5:7a:c1:a8:27:97:1c:de:27:cd:1d:f3:c2:06:d2:
        89:15:d0:9a:e7:fe:7d:33:42:ee:15:b4:19:01:0d:24:28:7c:
        54:f6:82:55:12:ff:1a:03:95:0c:c9:b7:77:83:58:75:50:a2:
        79:b3:a3:2b:d2:ce:fb:c9:f4:c3:90:82:e9:93:4e:16:a8:31:
        4e:fe:8a:c6:74:e6:10:5a:1f:8f:45:cc:9d:af:dd:f7:b8:e6:
        27:37:ce:c4:36:3f:bd:6f:65:33:1d:4a:34:79:ff:d4:7f:f9:
        8a:a6:f9:af:da:12:99:91:59:60:3d:b9:75:ad:78:2d:e2:d7:
        4a:5c:77:6f:99:94:57:1a:f6:4b:05:b3:b6:e5:1f:8c:b3:ee:
        7e:05:93:7e:83:30:5b:49:8f:da:ca:6f:08:60:05:80:d8:f1:
        af:37:0a:e2
-----BEGIN CERTIFICATE-----
MIIDdTCCAl2gAwIBAgIBFTANBgkqhkiG9w0BAQUFADBkMQswCQYDVQQGEwJVUzEw
MC4GA1UEChMnTm9ib2R5IFJlYWxseSBMb29rcyBBdCBUaGlzIEFueXdheSBJbmMu
MSMwIQYDVQQDExpEZW1vIENlcnRpZmljYXRlIEF1dGhvcml0eTAeFw0xMDA3Mjgx
NzM1MTVaFw0xMzA0MjMxNzM1MTVaMBcxFTATBgNVBAMUDCouZ29vZ2xlLmNvbTCC
ASIwDQYJKoZIhvcNAQEBBQADggEPADCCAQoCggEBANzl3ZlhTTSP+9LgF7KOuHWP
rRXftFF3xjnfz1aZQyO2MgQPVZfrr/9wKs/dw3RIsYOW2QBlTUbD9wXJtUUS/LhM
wU/o4inthfyuU+WkWHdsYe3mcHP9tHrveTvRHHXPidh5GPf+qvJpRuNhacZ8NrOl
/AnO8oTj0BpjEnk67L9KEy0ApheJxyeSVXdJ3lu6KuANkoetxn28hmHTZQNstghQ
6gACGM9FkBoAORrVxth63Np8MEWDC6rvZfXoXslDyPlOAXslHTziIV4RVCNX6pLR
Gm7Pa7i5v8mIM644wtGSqGhjTEzX9+RQ2UtkM5iUBzKXKyBCO2KiETibKWi9iaUC
AwEAAaN/MH0wDgYDVR0PAQH/BAQDAgTwMB0GA1UdDgQWBBS4OMOGCvHtOh3h0NnB
OK7h+E/Q1TAfBgNVHSMEGDAWgBSEOaU454Lv0ia5NCsu9yVirXm/3jAdBgNVHSUE
FjAUBggrBgEFBQcDAQYIKwYBBQUHAwIwDAYDVR0TAQH/BAIwADANBgkqhkiG9w0B
AQUFAAOCAQEAmUdUVYp2tl2+zyul+IzXu7HqxUw5NMKzFYyfndt87lp5Y6LZxvcT
sLShtwXiOlrrK8YhNHC27+8hiiPM4hsmdg9NdE7EBKAxM8AQejq4IzfBZec4pSlF
cZuSiBUOpXrBqCeXHN4nzR3zwgbSiRXQmuf+fTNC7hW0GQENJCh8VPaCVRL/GgOV
DMm3d4NYdVCiebOjK9LO+8n0w5CC6ZNOFqgxTv6KxnTmEFofj0XMna/d97jmJzfO
xDY/vW9lMx1KNHn/1H/5iqb5r9oSmZFZYD25da14LeLXSlx3b5mUVxr2SwWztuUf
jLPufgWTfoMwW0mP2spvCGAFgNjxrzcK4g==
-----END CERTIFICATE-----
