Certificate:
    Data:
        Version: 3 (0x2)
        Serial Number: 22 (0x16)
        Signature Algorithm: sha1WithRSAEncryption
        Issuer: C=US, O=Nobody Really Looks At This Anyway Inc., CN=Demo Certificate Authority
        Validity
            Not Before: Jul 28 17:35:41 2010 GMT
            Not After : Apr 23 17:35:41 2013 GMT
        Subject: CN=*.google.com
        Subject Public Key Info:
            Public Key Algorithm: rsaEncryption
            RSA Public Key: (2048 bit)
                Modulus (2048 bit):
                    00:a0:bd:8f:b7:34:20:92:82:1f:af:74:62:52:e9:
                    ae:ed:97:6a:87:1e:1e:e3:96:03:e2:4a:53:b6:1d:
                    55:25:d5:4f:17:cb:79:2a:69:43:29:19:ad:37:56:
                    e1:1b:ca:b0:55:0d:8e:17:8c:6d:81:6d:61:1a:d5:
                    40:67:cc:f6:e1:64:62:26:03:18:a0:5e:bd:93:2e:
                    82:81:3d:d7:b0:a7:0a:86:bc:f6:c2:89:21:f2:bc:
                    ff:70:eb:30:aa:66:c5:5f:49:02:4d:6f:dd:28:8e:
                    90:01:08:c9:fc:60:1f:7b:d5:3b:3f:92:2c:ec:3c:
                    d0:85:b3:17:e6:c7:f9:82:05:43:a9:dc:54:8c:6c:
                    96:64:5c:63:f9:e5:3f:bc:db:b5:f7:a1:77:98:d4:
                    02:8b:dd:89:f8:6d:9e:a0:b6:df:e5:13:14:38:2b:
                    1e:ea:4e:00:51:d0:17:db:7b:47:5c:e9:b6:2a:a3:
                    37:ed:28:d4:a1:82:f4:b6:f1:41:c2:96:eb:d4:16:
                    ec:5c:72:24:9b:de:ad:87:2f:7f:c1:62:6d:64:eb:
                    da:8b:0f:77:df:5d:c0:5f:e5:b9:39:fa:c1:c9:ac:
                    06:25:5e:ef:4a:ad:38:7c:eb:19:02:64:f5:a3:4b:
                    5c:73:0f:e3:0d:98:cb:60:24:1a:0c:98:5c:60:59:
                    0d:91
                Exponent: 65537 (0x10001)
        X509v3 extensions:
            X509v3 Key Usage: critical
                Digital Signature, Non Repudiation, Key Encipherment, Data Encipherment
            X509v3 Subject Key Identifier: 
                60:B3:D7:4A:A7:FA:BD:56:06:78:89:E5:E0:0C:62:BF:24:7B:0C:ED
            X509v3 Authority Key Identifier: 
                keyid:84:39:A5:38:E7:82:EF:D2:26:B9:34:2B:2E:F7:25:62:AD:79:BF:DE

            X509v3 Extended Key Usage: 
                TLS Web Server Authentication, TLS Web Client Authentication
            X509v3 Basic Constraints: critical
                CA:FALSE
    Signature Algorithm: sha1WithRSAEncryption
        a9:86:78:f1:a5:f4:81:6c:c5:57:9f:9a:4a:95:8d:98:d9:70:
        f9:a4:ac:37:7a:05:ac:16:1b:5c:54:c7:ee:f9:bf:5b:34:f3:
        a1:b8:12:69:2f:c4:81:c6:cc:a4:5a:aa:e0:82:c2:26:84:71:
        c2:24:6d:3c:3f:4d:e3:4b:a6:9e:16:51:b0:d7:43:77:46:34:
        3c:5c:1f:25:f6:92:3e:a7:d9:d9:60:6a:f3:fe:75:00:e6:37:
        f7:40:a9:6a:e6:9a:79:17:b4:cd:8a:a9:c3:12:ce:f0:9e:bb:
        49:5d:de:86:c2:6b:3b:95:ec:d8:11:dd:32:68:52:64:4c:69:
        4a:95:58:4f:ed:15:78:51:79:79:ac:4b:78:75:c5:a1:d5:d5:
        8e:15:81:e9:5a:87:a1:dc:16:70:f7:5e:1b:15:0d:86:64:0d:
        f9:c7:9c:cd:e3:6a:c4:cf:6b:60:d3:cb:ad:0a:f7:7c:2b:c4:
        59:e3:e2:4a:d1:cf:23:f5:f3:e3:11:b4:3d:d2:63:84:39:02:
        1d:45:10:8d:48:5b:91:0f:e5:c7:f9:16:93:c9:d8:c9:70:2f:
        96:bd:d1:a5:73:a7:4d:14:1d:2a:24:c1:27:b7:b6:15:3a:d3:
        22:8a:51:b9:0f:1b:1b:0d:5d:4c:37:1e:97:5f:f3:98:4a:95:
        7b:00:3e:7b
-----BEGIN CERTIFICATE-----
MIIDdTCCAl2gAwIBAgIBFjANBgkqhkiG9w0BAQUFADBkMQswCQYDVQQGEwJVUzEw
MC4GA1UEChMnTm9ib2R5IFJlYWxseSBMb29rcyBBdCBUaGlzIEFueXdheSBJbmMu
MSMwIQYDVQQDExpEZW1vIENlcnRpZmljYXRlIEF1dGhvcml0eTAeFw0xMDA3Mjgx
NzM1NDFaFw0xMzA0MjMxNzM1NDFaMBcxFTATBgNVBAMUDCouZ29vZ2xlLmNvbTCC
ASIwDQYJKoZIhvcNAQEBBQADggEPADCCAQoCggEBAKC9j7c0IJKCH690YlLpru2X
aoceHuOWA+JKU7YdVSXVTxfLeSppQykZrTdW4RvKsFUNjheMbYFtYRrVQGfM9uFk
YiYDGKBevZMugoE917CnCoa89sKJIfK8/3DrMKpmxV9JAk1v3SiOkAEIyfxgH3vV
Oz+SLOw80IWzF+bH+YIFQ6ncVIxslmRcY/nlP7zbtfehd5jUAovdifhtnqC23+UT
FDgrHupOAFHQF9t7R1zptiqjN+0o1KGC9LbxQcKW69QW7FxyJJverYcvf8FibWTr
2osPd99dwF/luTn6wcmsBiVe70qtOHzrGQJk9aNLXHMP4w2Yy2AkGgyYXGBZDZEC
AwEAAaN/MH0wDgYDVR0PAQH/BAQDAgTwMB0GA1UdDgQWBBRgs9dKp/q9VgZ4ieXg
DGK/JHsM7TAfBgNVHSMEGDAWgBSEOaU454Lv0ia5NCsu9yVirXm/3jAdBgNVHSUE
FjAUBggrBgEFBQcDAQYIKwYBBQUHAwIwDAYDVR0TAQH/BAIwADANBgkqhkiG9w0B
AQUFAAOCAQEAqYZ48aX0gWzFV5+aSpWNmNlw+aSsN3oFrBYbXFTH7vm/WzTzobgS
aS/EgcbMpFqq4ILCJoRxwiRtPD9N40umnhZRsNdDd0Y0PFwfJfaSPqfZ2WBq8/51
AOY390CpauaaeRe0zYqpwxLO8J67SV3ehsJrO5Xs2BHdMmhSZExpSpVYT+0VeFF5
eaxLeHXFodXVjhWB6VqHodwWcPdeGxUNhmQN+ceczeNqxM9rYNPLrQr3fCvEWePi
StHPI/Xz4xG0PdJjhDkCHUUQjUhbkQ/lx/kWk8nYyXAvlr3RpXOnTRQdKiTBJ7e2
FTrTIopRuQ8bGw1dTDcel1/zmEqVewA+ew==
-----END CERTIFICATE-----
